LX51 LINKER/LOCATER V4.41                                                               12/15/2025  10:37:13  PAGE 1


LX51 LINKER/LOCATER V4.41, INVOKED BY:
C:\KEIL\C51\BIN\LX51.EXE Debug.obj, Main.obj, Timer0.obj, Effect.obj, Savedata.obj, WriteFlashROM.obj, ADC.obj, Effect_R
>> GBDance.obj TO ch554_txm


CPU MODE:     8051 MODE
MEMORY MODEL: LARGE


INPUT MODULES INCLUDED:
  Debug.obj (DEBUG)
         COMMENT TYPE 0: C51 V9.01
  Main.obj (MAIN)
         COMMENT TYPE 0: C51 V9.01
  Timer0.obj (TIMER0)
         COMMENT TYPE 0: C51 V9.01
  Effect.obj (EFFECT)
         COMMENT TYPE 0: C51 V9.01
  Savedata.obj (SAVEDATA)
         COMMENT TYPE 0: C51 V9.01
  WriteFlashROM.obj (WRITEFLASHROM)
         COMMENT TYPE 0: C51 V9.01
  ADC.obj (ADC)
         COMMENT TYPE 0: C51 V9.01
  Effect_RGBDance.obj (EFFECT_RGBDANCE)
         COMMENT TYPE 0: C51 V9.01
  C:\KEIL\C51\LIB\C51L.LIB (?C_STARTUP)
         COMMENT TYPE 1: A51 / ASM51 Assembler
  C:\KEIL\C51\LIB\C51L.LIB (?C?IMUL)
         COMMENT TYPE 1: A51 / ASM51 Assembler
  C:\KEIL\C51\LIB\C51L.LIB (?C?UIDIV)
         COMMENT TYPE 1: A51 / ASM51 Assembler
  C:\KEIL\C51\LIB\C51L.LIB (?C?SIDIV)
         COMMENT TYPE 1: A51 / ASM51 Assembler
  C:\KEIL\C51\LIB\C51L.LIB (?C?IILDX)
         COMMENT TYPE 1: A51 / ASM51 Assembler
  C:\KEIL\C51\LIB\C51L.LIB (?C?ILDPTR)
         COMMENT TYPE 1: A51 / ASM51 Assembler
  C:\KEIL\C51\LIB\C51L.LIB (?C?ULDIV)
         COMMENT TYPE 1: A51 / ASM51 Assembler
  C:\KEIL\C51\LIB\C51L.LIB (?C?SLDIV)
         COMMENT TYPE 1: A51 / ASM51 Assembler
  C:\KEIL\C51\LIB\C51L.LIB (?C?ULCMP)
         COMMENT TYPE 1: A51 / ASM51 Assembler
  C:\KEIL\C51\LIB\C51L.LIB (?C?ULSHR)
         COMMENT TYPE 1: A51 / ASM51 Assembler
  C:\KEIL\C51\LIB\C51L.LIB (?C?SLSHR)
         COMMENT TYPE 1: A51 / ASM51 Assembler
  C:\KEIL\C51\LIB\C51L.LIB (?C?LSHL)
         COMMENT TYPE 1: A51 / ASM51 Assembler
  C:\KEIL\C51\LIB\C51L.LIB (?C?LLDXDATA)
         COMMENT TYPE 1: A51 / ASM51 Assembler
  C:\KEIL\C51\LIB\C51L.LIB (?C?LLDCODE)
         COMMENT TYPE 1: A51 / ASM51 Assembler
  C:\KEIL\C51\LIB\C51L.LIB (?C?LLDXDATA0)
         COMMENT TYPE 1: A51 / ASM51 Assembler
  C:\KEIL\C51\LIB\C51L.LIB (?C?LILDXDATA)
         COMMENT TYPE 1: A51 / ASM51 Assembler
  C:\KEIL\C51\LIB\C51L.LIB (?C?LSTXDATA)
         COMMENT TYPE 1: A51 / ASM51 Assembler
  C:\KEIL\C51\LIB\C51L.LIB (?C?LSTKXDATA)
         COMMENT TYPE 1: A51 / ASM51 Assembler
  C:\KEIL\C51\LIB\C51L.LIB (?C?OFFXADD)
         COMMENT TYPE 1: A51 / ASM51 Assembler
  C:\KEIL\C51\LIB\C51L.LIB (RAND)
         COMMENT TYPE 1: A51 / ASM51 Assembler
LX51 LINKER/LOCATER V4.41                                                             12/15/2025  10:37:13  PAGE 2


  C:\KEIL\C51\LIB\C51L.LIB (?C_INIT)
         COMMENT TYPE 1: A51 / ASM51 Assembler


ACTIVE MEMORY CLASSES OF MODULE:  ch554_txm (DEBUG)

BASE        START       END         USED      MEMORY CLASS
==========================================================
C:000000H   C:000000H   C:00FFFFH   0022FFH   CODE
X:000000H   X:000000H   X:00FFFFH   000182H   XDATA
C:000000H   C:000000H   C:00FFFFH   00000CH   CONST
I:000000H   I:000000H   I:0000FFH   00000DH   IDATA
I:000020H.0 I:000020H.0 I:00002FH.7 000000H.1 BIT
I:000000H   I:000000H   I:00007FH   000019H   DATA


MEMORY MAP OF MODULE:  ch554_txm (DEBUG)


START     STOP      LENGTH    ALIGN  RELOC    MEMORY CLASS   SEGMENT NAME
=========================================================================

* * * * * * * * * * *   D A T A   M E M O R Y   * * * * * * * * * * * * *
000000H   000007H   000008H   ---    AT..     DATA           "REG BANK 0"
000008H   000008H   000001H   BYTE   UNIT     DATA           _DATA_GROUP_
000009H   00000EH   000006H   BYTE   UNIT     IDATA          ?ID?TIMER0
00000FH   00000FH   000001H   BYTE   UNIT     IDATA          ?ID?EFFECT
000010H   000017H   000008H   ---    AT..     DATA           "REG BANK 2"
000018H   00001FH   000008H   ---    AT..     DATA           "REG BANK 3"
000020H.0 000020H.0 000000H.1 BIT    UNIT     BIT            ?BI?MAIN
000020H.1 000020H   000000H.7 ---    ---      **GAP**
000021H   000024H   000004H   BYTE   UNIT     IDATA          ?ID?MAIN
000025H   000025H   000001H   BYTE   UNIT     IDATA          ?ID?ADC
000026H   000026H   000001H   BYTE   UNIT     IDATA          ?STACK

* * * * * * * * * * *   C O D E   M E M O R Y   * * * * * * * * * * * * *
000000H   000002H   000003H   ---    OFFS..   CODE           ?CO??C_STARTUP?0
000003H   000005H   000003H   BYTE   INBLOCK  CODE           ?PR?_CH554WDTFEED?DEBUG
000006H   000008H   000003H   BYTE   INBLOCK  CODE           ?PR?RGB_ONDISPLAY?EFFECT
000009H   00000AH   000002H   ---    ---      **GAP**
00000BH   00000DH   000003H   BYTE   OFFS..   CODE           ?TIMER0?0000B
00000EH   000017H   00000AH   BYTE   INBLOCK  CODE           ?PR?UART1SETUP?DEBUG
000018H   00001AH   000003H   ---    ---      **GAP**
00001BH   00001DH   000003H   BYTE   OFFS..   CODE           ?TIMER0?0001B
00001EH   000027H   00000AH   BYTE   INBLOCK  CODE           ?PR?RGB_PININIT?EFFECT
000028H   00002AH   000003H   ---    ---      **GAP**
00002BH   00002DH   000003H   BYTE   OFFS..   CODE           ?TIMER0?0002B
00002EH   000047H   00001AH   BYTE   INBLOCK  CODE           ?PR?_MDELAYUS?DEBUG
000048H   00004AH   000003H   ---    ---      **GAP**
00004BH   00004DH   000003H   BYTE   OFFS..   CODE           ?ADC?0004B
00004EH   00076BH   00071EH   BYTE   INBLOCK  CODE           ?PR?_RGB_PROCESSKEY?EFFECT
00076CH   0007EAH   00007FH   BYTE   INBLOCK  CODE           ?PR?MINITSTDIO?DEBUG
0007EBH   0007FDH   000013H   BYTE   INBLOCK  CODE           ?PR?ADC_INTERRUPT?ADC
0007FEH   0007FFH   000002H   ---    ---      **GAP**
000800H   000EF5H   0006F6H   BYTE   INBLOCK  CODE           ?PR?_PROGRAM_EFFECT?EFFECT
000EF6H   000FA5H   0000B0H   BYTE   INBLOCK  CODE           ?PR?TIMER2_CAPTURE?TIMER0
000FA6H   000FF7H   000052H   BYTE   INBLOCK  CODE           ?PR?_RGB_SETCOLOR?EFFECT
000FF8H   000FFFH   000008H   ---    ---      **GAP**
001000H   0012C7H   0002C8H   BYTE   INBLOCK  CODE           ?PR?HANDLER_COLOR_BUTTON?MAIN
0012C8H   0014D9H   000212H   BYTE   INBLOCK  CODE           ?PR?_CHECK_BUTTON?EFFECT
0014DAH   00164DH   000174H   BYTE   INBLOCK  CODE           ?PR?_EFFECT_MOVECOLOR?EFFECT_RGBDANCE
00164EH   00178BH   00013EH   BYTE   INBLOCK  CODE           ?PR?_EFFECT_MOVECOLOR2?EFFECT_RGBDANCE
00178CH   0017FBH   000070H   BYTE   INBLOCK  CODE           ?PR?_SETCOLOR?EFFECT
0017FCH   0017FFH   000004H   ---    ---      **GAP**
001800H   0018A5H   0000A6H   BYTE   INBLOCK  CODE           ?PR?MAIN?MAIN
LX51 LINKER/LOCATER V4.41                                                             12/15/2025  10:37:13  PAGE 3


0018A6H   001923H   00007EH   BYTE   INBLOCK  CODE           ?PR?_RGB_SETSPEED?EFFECT
001924H   00199EH   00007BH   BYTE   INBLOCK  CODE           ?PR?_PROGRAM_AUTOEFFECT?EFFECT
00199FH   001A08H   00006AH   BYTE   INBLOCK  CODE           ?PR?TIMER0_UPDATE?TIMER0
001A09H   001A6AH   000062H   BYTE   INBLOCK  CODE           ?PR?KEY_GETKEY?EFFECT
001A6BH   001ACCH   000062H   BYTE   INBLOCK  CODE           ?PR?_WRITEDOUBLEBYTEROM?WRITEFLASHROM
001ACDH   001B1AH   00004EH   BYTE   INBLOCK  CODE           ?PR?_RGB_SETBRIGHT?EFFECT
001B1BH   001B66H   00004CH   BYTE   INBLOCK  CODE           ?PR?_SETPROCESSAUTOEFFECT?EFFECT
001B67H   001BAFH   000049H   BYTE   INBLOCK  CODE           ?PR?_TIMER1_INIT?TIMER0
001BB0H   001BF6H   000047H   BYTE   INBLOCK  CODE           ?PR?_TIMER0_INIT?TIMER0
001BF7H   001C38H   000042H   BYTE   INBLOCK  CODE           ?PR?SAVEDATA?SAVEDATA
001C39H   001C72H   00003AH   BYTE   INBLOCK  CODE           ?PR?_AUDIO_CONVERT?EFFECT
001C73H   001CABH   000039H   BYTE   INBLOCK  CODE           ?PR?_LED7_OUTDATA?EFFECT
001CACH   001CDCH   000031H   BYTE   INBLOCK  CODE           ?PR?TIMER1_UPDATE?TIMER0
001CDDH   001D05H   000029H   BYTE   INBLOCK  CODE           ?PR?_RGB_SETMODESPEED?EFFECT
001D06H   001D29H   000024H   BYTE   INBLOCK  CODE           ?PR?LOADSAVEDATA?SAVEDATA
001D2AH   001D47H   00001EH   BYTE   INBLOCK  CODE           ?PR?TIMER2_INPUTCAPTURE_INIT?TIMER0
001D48H   001D60H   000019H   BYTE   INBLOCK  CODE           ?PR?_MDELAYMS?DEBUG
001D61H   001D77H   000017H   BYTE   INBLOCK  CODE           ?PR?_CH554WDTMODESELECT?DEBUG
001D78H   001D8DH   000016H   BYTE   INBLOCK  CODE           ?PR?_DISPLAY_LED_7?EFFECT
001D8EH   001D9FH   000012H   BYTE   INBLOCK  CODE           ?PR?CFGFSYS?DEBUG
001DA0H   001DB0H   000011H   BYTE   INBLOCK  CODE           ?PR?ADC_INIT?ADC
001DB1H   001DB9H   000009H   BYTE   INBLOCK  CODE           ?PR?RGB_OFFDISPLAY?EFFECT
001DBAH   002056H   00029DH   BYTE   UNIT     CODE           ?C?LIB_CODE
002057H   0021FAH   0001A4H   BYTE   UNIT     CODE           ?C_INITSEG
0021FBH   002286H   00008CH   BYTE   UNIT     CODE           ?C_C51STARTUP
002287H   0022D3H   00004DH   BYTE   UNIT     CODE           ?PR?RAND?RAND
0022D4H   002317H   000044H   BYTE   UNIT     CODE           ?C?LDIV
002318H   002323H   00000CH   BYTE   UNIT     CONST          ?CO?MAIN

* * * * * * * * * * *  X D A T A   M E M O R Y  * * * * * * * * * * * * *
000000H   0000FFH   000100H   BYTE   UNIT     XDATA          ?XD?MAIN
000100H   00014EH   00004FH   BYTE   UNIT     XDATA          ?XD?EFFECT
00014FH   00015AH   00000CH   BYTE   UNIT     XDATA          _XDATA_GROUP_
00015BH   000165H   00000BH   BYTE   UNIT     XDATA          ?XD?EFFECT_RGBDANCE
000166H   00016AH   000005H   BYTE   UNIT     XDATA          ?XD?MINITSTDIO?DEBUG
00016BH   00016FH   000005H   BYTE   UNIT     XDATA          ?XD?TIMER0
000170H   000174H   000005H   BYTE   UNIT     XDATA          ?XD?_RGB_PROCESSKEY?EFFECT
000175H   000178H   000004H   BYTE   UNIT     XDATA          ?XD?RAND?RAND
000179H   00017AH   000002H   BYTE   UNIT     XDATA          ?XD?_CHECK_BUTTON?EFFECT
00017BH   00017CH   000002H   BYTE   UNIT     XDATA          ?XD?_PROGRAM_EFFECT?EFFECT
00017DH   00017EH   000002H   BYTE   UNIT     XDATA          ?XD?_EFFECT_MOVECOLOR?EFFECT_RGBDANCE
00017FH   00017FH   000001H   BYTE   UNIT     XDATA          ?XD?_SETCOLOR?EFFECT
000180H   000180H   000001H   BYTE   UNIT     XDATA          ?XD?KEY_GETKEY?EFFECT
000181H   000181H   000001H   BYTE   UNIT     XDATA          ?XD?_EFFECT_MOVECOLOR2?EFFECT_RGBDANCE



OVERLAY MAP OF MODULE:   ch554_txm (DEBUG)


FUNCTION/MODULE                         DATA_GROUP   XDATA_GROUP
--> CALLED FUNCTION/MODULE              START  STOP  START  STOP
================================================================
TIMER0_UPDATE/TIMER0                    ----- -----  ----- -----

*** NEW ROOT **************************

TIMER1_UPDATE/TIMER0                    ----- -----  ----- -----

*** NEW ROOT **************************

TIMER2_CAPTURE/TIMER0                   ----- -----  ----- -----

*** NEW ROOT **************************

LX51 LINKER/LOCATER V4.41                                                             12/15/2025  10:37:13  PAGE 4


ADC_INTERRUPT/ADC                       ----- -----  ----- -----

*** NEW ROOT **************************

?C_C51STARTUP                           ----- -----  ----- -----
  +--> ?PR?MAIN?MAIN
  +--> ?C_INITSEG

MAIN/MAIN                               ----- -----  ----- -----
  +--> ?PR?CFGFSYS?DEBUG
  +--> ?PR?_MDELAYMS?DEBUG
  +--> ?PR?_CH554WDTMODESELECT?DEBUG
  +--> ?PR?_CH554WDTFEED?DEBUG
  +--> ?PR?RGB_PININIT?EFFECT
  +--> ?PR?LOADSAVEDATA?SAVEDATA
  +--> ?PR?_TIMER0_INIT?TIMER0
  +--> ?PR?_TIMER1_INIT?TIMER0
  +--> ?PR?TIMER2_INPUTCAPTURE_INIT?TIMER0
  +--> ?PR?ADC_INIT?ADC
  +--> ?PR?_RGB_SETSPEED?EFFECT
  +--> ?PR?RGB_ONDISPLAY?EFFECT
  +--> ?PR?HANDLER_COLOR_BUTTON?MAIN
  +--> ?PR?_RGB_SETCOLOR?EFFECT

CFGFSYS/DEBUG                           ----- -----  ----- -----

_MDELAYMS/DEBUG                         ----- -----  ----- -----
  +--> ?PR?_MDELAYUS?DEBUG

_MDELAYUS/DEBUG                         ----- -----  ----- -----

_CH554WDTMODESELECT/DEBUG               ----- -----  ----- -----

_CH554WDTFEED/DEBUG                     ----- -----  ----- -----

RGB_PININIT/EFFECT                      ----- -----  ----- -----

LOADSAVEDATA/SAVEDATA                   ----- -----  ----- -----
  +--> ?CO?MAIN

?CO?MAIN                                ----- -----  ----- -----

_TIMER0_INIT/TIMER0                     ----- -----  014FH 0150H

_TIMER1_INIT/TIMER0                     ----- -----  014FH 0150H

TIMER2_INPUTCAPTURE_INIT/TIMER0         ----- -----  ----- -----

ADC_INIT/ADC                            ----- -----  ----- -----

_RGB_SETSPEED/EFFECT                    ----- -----  014FH 0150H

RGB_ONDISPLAY/EFFECT                    ----- -----  ----- -----

HANDLER_COLOR_BUTTON/MAIN               ----- -----  014FH 0150H
  +--> ?PR?_MDELAYMS?DEBUG
  +--> ?PR?SAVEDATA?SAVEDATA

SAVEDATA/SAVEDATA                       ----- -----  ----- -----
  +--> ?CO?MAIN
  +--> ?PR?_WRITEDOUBLEBYTEROM?WRITEFLASHROM

_WRITEDOUBLEBYTEROM/WRITEFLASHROM       0008H 0008H  0154H 015AH

_RGB_SETCOLOR/EFFECT                    ----- -----  014FH 0153H
LX51 LINKER/LOCATER V4.41                                                             12/15/2025  10:37:13  PAGE 5


  +--> ?PR?SAVEDATA?SAVEDATA
  +--> ?PR?_RGB_SETBRIGHT?EFFECT

_RGB_SETBRIGHT/EFFECT                   ----- -----  ----- -----

?C_INITSEG                              ----- -----  ----- -----



PUBLIC SYMBOLS OF MODULE:  ch554_txm (DEBUG)


      VALUE       CLASS    TYPE      PUBLIC SYMBOL NAME
      =================================================
      02000170H   XDATA    BYTE      ?_RGB_ProcessKey?BYTE
      0200014FH   XDATA    BYTE      ?_RGB_SetColor?BYTE
      02000154H   XDATA    BYTE      ?_WriteDoubleByteROM?BYTE
      00000000H   NUMBER   ---       ?C?CODESEG
      01001E57H   CODE     ---       ?C?IILDX
      01001E6DH   CODE     ---       ?C?ILDPTR
      01001DBAH   CODE     ---       ?C?IMUL
      01001FE2H   CODE     ---       ?C?LILDXDATA
      01001FD9H   CODE     ---       ?C?LILDXDATA1
      01001FDBH   CODE     ---       ?C?LILDXDATA8
      01001FBDH   CODE     ---       ?C?LLDCODE
      01001FB1H   CODE     ---       ?C?LLDXDATA
      01001FCDH   CODE     ---       ?C?LLDXDATA0
      01001F9EH   CODE     ---       ?C?LSHL
      0100201AH   CODE     ---       ?C?LSTKXDATA
      0100200EH   CODE     ---       ?C?LSTXDATA
      0100204BH   CODE     ---       ?C?OFFXADD
      01001E21H   CODE     ---       ?C?SIDIV
      010022D4H   CODE     ---       ?C?SLDIV
      01001F8AH   CODE     ---       ?C?SLSHR
      01001DCCH   CODE     ---       ?C?UIDIV
      01001F66H   CODE     ---       ?C?ULCMP
      01001ED4H   CODE     ---       ?C?ULDIV
      01001F77H   CODE     ---       ?C?ULSHR
      00000000H   NUMBER   ---       ?C?XDATASEG
      01002242H   CODE     ---       ?C_START
      01000000H   CODE     ---       ?C_STARTUP
      02000175H   XDATA    ---       ?SRAND?BYTE
      01001C39H   CODE     ---       _Audio_Convert
      01000003H   CODE     ---       _CH554WDTFeed
      01001D61H   CODE     ---       _CH554WDTModeSelect
      010012C8H   CODE     ---       _Check_Button
      01001D78H   CODE     ---       _Display_LED_7
      010014DAH   CODE     ---       _EFFECT_MoveColor
      0100164EH   CODE     ---       _EFFECT_MoveColor2
      02000162H   XDATA    BYTE      _Flag_color
      0200015CH   XDATA    WORD      _Flagcount
      02000161H   XDATA    BYTE      _FlagFade
      02000163H   XDATA    BYTE      _FlagMusic
      01001C73H   CODE     ---       _LED7_OutData
      01001D48H   CODE     ---       _mDelaymS
      0100002EH   CODE     ---       _mDelayuS
      01001924H   CODE     ---       _Program_AutoEffect
      01000800H   CODE     ---       _Program_Effect
      0100004EH   CODE     ---       _RGB_ProcessKey
      01001AD2H   CODE     ---       _RGB_SetBright
      01000FB6H   CODE     ---       _RGB_SetColor
      01001CDDH   CODE     ---       _RGB_SetModeSpeed
      010018A6H   CODE     ---       _RGB_SetSpeed
      0100179EH   CODE     ---       _SetColor
      01001B1BH   CODE     ---       _SetProcessAutoEffect
LX51 LINKER/LOCATER V4.41                                                             12/15/2025  10:37:13  PAGE 6


      010022C5H   CODE     ---       _SRAND
      01001BB0H   CODE     ---       _Timer0_Init
      01001B67H   CODE     ---       _Timer1_Init
      01001A6BH   CODE     ---       _WriteDoubleByteROM
*SFR* 000000D0H.6 DATA     BIT       AC
*SFR* 000000E0H   DATA     BYTE      ACC
*SFR* 0000009AH   DATA     BYTE      ADC_CFG
*SFR* 00000080H   DATA     BIT       ADC_CHAN0
*SFR* 00000080H.1 DATA     BIT       ADC_CHAN1
*SFR* 00000080H   DATA     BYTE      ADC_CTRL
*SFR* 0000009FH   DATA     BYTE      ADC_DATA
*SFR* 00000080H.5 DATA     BIT       ADC_IF
      01001DA0H   CODE     ---       ADC_Init
      010007EBH   CODE     ---       ADC_Interrupt
*SFR* 00000080H.4 DATA     BIT       ADC_START
      00000025H   IDATA    BYTE      ADC_Value
*SFR* 00000090H.1 DATA     BIT       AIN0
*SFR* 00000090H.4 DATA     BIT       AIN1
*SFR* 00000090H.5 DATA     BIT       AIN2
*SFR* 000000B0H.2 DATA     BIT       AIN3
*SFR* 000000F0H   DATA     BYTE      B
      00000020H.0 BIT      BIT       BIT_TMP
      0000000FH   IDATA    BYTE      But_Count
*SFR* 000000B0H.3 DATA     BIT       BUT_DON_DA
*SFR* 000000B0H.4 DATA     BIT       BUT_MUSIC
*SFR* 000000B0H   DATA     BIT       BUT_SPEED
*SFR* 000000C8H.1 DATA     BIT       C_T2
*SFR* 00000090H   DATA     BIT       CAP1
*SFR* 00000090H.4 DATA     BIT       CAP1_
*SFR* 000000C8H.7 DATA     BIT       CAP1F
*SFR* 00000090H.1 DATA     BIT       CAP2
      01001D8EH   CODE     ---       CfgFsys
*SFR* 000000B9H   DATA     BYTE      CLOCK_CFG
*SFR* 00000080H.3 DATA     BIT       CMP_CHAN
*SFR* 00000080H.6 DATA     BIT       CMP_IF
*SFR* 00000080H.7 DATA     BIT       CMPO
      02000006H   XDATA    ---       color
      0200004AH   XDATA    DWORD     color_disp
      0200009AH   XDATA    DWORD     color_disp_old
      02000130H   XDATA    ---       ColorTable
*SFR* 000000C8H   DATA     BIT       CP_RL2
*SFR* 000000D0H.7 DATA     BIT       CY
      020000F5H   XDATA    ---       DataFlash
      02000000H   XDATA    BYTE      dB_Data
      0200014CH   XDATA    BYTE      Delay_Music_MONO
      00000022H   IDATA    BYTE      Display_Effect
*SFR* 00000083H   DATA     BYTE      DPH
*SFR* 00000082H   DATA     BYTE      DPL
*SFR* 000000A8H.6 DATA     BIT       E_DIS
*SFR* 000000A8H.7 DATA     BIT       EA
      0200016FH   XDATA    BYTE      Effect_Time4
*SFR* 000000A8H.4 DATA     BIT       ES
*SFR* 000000A8H.1 DATA     BIT       ET0
*SFR* 000000A8H.3 DATA     BIT       ET1
*SFR* 000000A8H.5 DATA     BIT       ET2
*SFR* 000000A8H   DATA     BIT       EX0
*SFR* 000000A8H.2 DATA     BIT       EX1
*SFR* 000000C8H.3 DATA     BIT       EXEN2
*SFR* 000000C8H.6 DATA     BIT       EXF2
*SFR* 000000D0H.5 DATA     BIT       F0
*SFR* 000000D0H.1 DATA     BIT       F1
      0000000BH   IDATA    BYTE      Flag_Capture
      00000023H   IDATA    BYTE      Flag_IR_Convert
      00000021H   IDATA    BYTE      Flag_Speed_Effect
*SFR* 000000B1H   DATA     BYTE      GLOBAL_CFG
LX51 LINKER/LOCATER V4.41                                                             12/15/2025  10:37:13  PAGE 7


*SFR* 000000B0H.1 DATA     BIT       GPIO_BLUE
*SFR* 00000090H   DATA     BIT       GPIO_GREEN
*SFR* 000000C7H   DATA     BYTE      GPIO_IE
*SFR* 00000090H.7 DATA     BIT       GPIO_RED
      01001000H   CODE     ---       handler_color_button
      020000EDH   XDATA    DWORD     i
*SFR* 000000A8H   DATA     BYTE      IE
*SFR* 00000088H.1 DATA     BIT       IE0
*SFR* 00000088H.3 DATA     BIT       IE1
*SFR* 000000E8H.3 DATA     BIT       IE_ADC
*SFR* 000000E8H   DATA     BYTE      IE_EX
*SFR* 000000E8H.6 DATA     BIT       IE_GPIO
*SFR* 000000E8H.5 DATA     BIT       IE_PWMX
*SFR* 000000E8H   DATA     BIT       IE_SPI0
*SFR* 000000E8H.1 DATA     BIT       IE_TKEY
*SFR* 000000E8H.4 DATA     BIT       IE_UART1
*SFR* 000000E8H.2 DATA     BIT       IE_USB
*SFR* 000000E8H.7 DATA     BIT       IE_WDOG
*SFR* 000000B0H.2 DATA     BIT       INT0
*SFR* 000000B0H.3 DATA     BIT       INT1
*SFR* 000000B8H   DATA     BYTE      IP
*SFR* 000000E9H   DATA     BYTE      IP_EX
      020000FCH   XDATA    DWORD     IR_Data
*SFR* 00000088H   DATA     BIT       IT0
*SFR* 00000088H.2 DATA     BIT       IT1
      020000F1H   XDATA    DWORD     j
      0200004EH   XDATA    ---       key_color
      020000A9H   XDATA    ---       key_colorMH
      01001A09H   CODE     ---       KEY_GetKey
      0200012AH   XDATA    BYTE      LastMode
*SFR* 00000090H.4 DATA     BIT       LED
*SFR* 00000090H.5 DATA     BIT       LED2
*SFR* 000000B0H.5 DATA     BIT       LED7_DATA_A
*SFR* 00000090H.5 DATA     BIT       LED7_DATA_B
*SFR* 00000090H.6 DATA     BIT       LED7_DATA_C
*SFR* 00000090H.4 DATA     BIT       LED7_DATA_D
*SFR* 000000B0H.2 DATA     BIT       LED7_DATA_E
*SFR* 00000090H.3 DATA     BIT       LED7_DATA_F
*SFR* 00000090H.2 DATA     BIT       LED7_DATA_G
*SFR* 000000B0H.1 DATA     BIT       LED_B
*SFR* 00000090H   DATA     BIT       LED_G
*SFR* 00000090H.7 DATA     BIT       LED_R
      01001D06H   CODE     ---       LOADSAVEDATA
      01001800H   CODE     ---       main
      0100076CH   CODE     ---       mInitSTDIO
*SFR* 00000090H.6 DATA     BIT       MISO
*SFR* 00000090H.5 DATA     BIT       MOSI
*SFR* 000000D0H.2 DATA     BIT       OV
*SFR* 000000D0H   DATA     BIT       P
*SFR* 00000090H   DATA     BYTE      P1
*SFR* 00000093H   DATA     BYTE      P1_DIR_PU
*SFR* 00000092H   DATA     BYTE      P1_MOD_OC
*SFR* 000000A0H   DATA     BYTE      P2
*SFR* 000000B0H   DATA     BYTE      P3
*SFR* 00000097H   DATA     BYTE      P3_DIR_PU
*SFR* 00000096H   DATA     BYTE      P3_MOD_OC
*SFR* 00000087H   DATA     BYTE      PCON
*SFR* 000000B8H.7 DATA     BIT       PH_FLAG
*SFR* 000000C6H   DATA     BYTE      PIN_FUNC
*SFR* 000000B8H.6 DATA     BIT       PL_FLAG
*SFR* 000000B8H.4 DATA     BIT       PS
*SFR* 000000D0H   DATA     BYTE      PSW
*SFR* 000000B8H.1 DATA     BIT       PT0
*SFR* 000000B8H.3 DATA     BIT       PT1
*SFR* 000000B8H.5 DATA     BIT       PT2
LX51 LINKER/LOCATER V4.41                                                             12/15/2025  10:37:13  PAGE 8


*SFR* 00000090H.5 DATA     BIT       PWM1
*SFR* 000000B0H   DATA     BIT       PWM1_
*SFR* 000000B0H.4 DATA     BIT       PWM2
*SFR* 000000B0H.1 DATA     BIT       PWM2_
*SFR* 0000009EH   DATA     BYTE      PWM_CK_SE
*SFR* 0000009DH   DATA     BYTE      PWM_CTRL
*SFR* 0000009CH   DATA     BYTE      PWM_DATA1
*SFR* 0000009BH   DATA     BYTE      PWM_DATA2
*SFR* 000000B8H   DATA     BIT       PX0
*SFR* 000000B8H.2 DATA     BIT       PX1
      01002287H   CODE     ---       RAND
*SFR* 00000098H.2 DATA     BIT       RB8
*SFR* 000000CAH   DATA     WORD      RCAP2
*SFR* 000000CBH   DATA     BYTE      RCAP2H
*SFR* 000000CAH   DATA     BYTE      RCAP2L
*SFR* 000000C8H.5 DATA     BIT       RCLK
      02000126H   XDATA    ---       RedGreenBlue
*SFR* 00000098H.4 DATA     BIT       REN
*SFR* 000000FEH   DATA     BYTE      RESET_KEEP
      0200009EH   XDATA    ---       RGB_DataRam
      01001DB1H   CODE     ---       RGB_OffDisplay
      01000006H   CODE     ---       RGB_OnDisplay
      0100001EH   CODE     ---       RGB_PinInit
*SFR* 00000098H   DATA     BIT       RI
*SFR* 00000084H   DATA     WORD      ROM_ADDR
*SFR* 00000085H   DATA     BYTE      ROM_ADDR_H
*SFR* 00000084H   DATA     BYTE      ROM_ADDR_L
*SFR* 00000086H   DATA     BYTE      ROM_CTRL
*SFR* 0000008EH   DATA     WORD      ROM_DATA
*SFR* 0000008FH   DATA     BYTE      ROM_DATA_H
*SFR* 0000008EH   DATA     BYTE      ROM_DATA_L
*SFR* 000000D0H.3 DATA     BIT       RS0
*SFR* 000000D0H.4 DATA     BIT       RS1
      00000024H   IDATA    BYTE      Run_Effect_Done
*SFR* 000000B0H   DATA     BIT       RXD
*SFR* 00000090H.6 DATA     BIT       RXD1
*SFR* 000000B0H.4 DATA     BIT       RXD1_
*SFR* 00000090H.2 DATA     BIT       RXD_
*SFR* 000000F8H.3 DATA     BIT       S0_FREE
*SFR* 000000F8H.7 DATA     BIT       S0_FST_ACT
*SFR* 000000F8H.4 DATA     BIT       S0_IF_BYTE
*SFR* 000000F8H.5 DATA     BIT       S0_IF_FIRST
*SFR* 000000F8H.6 DATA     BIT       S0_IF_OV
*SFR* 000000F8H   DATA     BIT       S0_R_FIFO
*SFR* 000000F8H.2 DATA     BIT       S0_T_FIFO
*SFR* 000000A1H   DATA     BYTE      SAFE_MOD
      01001BF7H   CODE     ---       SAVEDATA
*SFR* 000000C2H   DATA     BYTE      SBAUD1
*SFR* 00000099H   DATA     BYTE      SBUF
*SFR* 000000C1H   DATA     BYTE      SBUF1
*SFR* 00000090H.7 DATA     BIT       SCK
*SFR* 00000098H   DATA     BYTE      SCON
*SFR* 000000C0H   DATA     BYTE      SCON1
*SFR* 00000090H.4 DATA     BIT       SCS
*SFR* 00000098H.7 DATA     BIT       SM0
*SFR* 00000098H.6 DATA     BIT       SM1
*SFR* 00000098H.5 DATA     BIT       SM2
*SFR* 00000081H   DATA     BYTE      SP
*SFR* 000000FBH   DATA     BYTE      SPI0_CK_SE
*SFR* 000000FAH   DATA     BYTE      SPI0_CTRL
*SFR* 000000F9H   DATA     BYTE      SPI0_DATA
*SFR* 000000FCH   DATA     BYTE      SPI0_SETUP
*SFR* 000000F8H   DATA     BYTE      SPI0_STAT
      02000005H   XDATA    BYTE      start_select_color
      02000001H   XDATA    DWORD     stat_but_dd
LX51 LINKER/LOCATER V4.41                                                             12/15/2025  10:37:13  PAGE 9


      020000F8H   XDATA    DWORD     stat_but_music
      02000046H   XDATA    DWORD     stat_but_sp
      0200015BH   XDATA    BYTE      Step_Color
      02000160H   XDATA    BYTE      Step_Duty
*SFR* 000000B0H.4 DATA     BIT       T0
*SFR* 000000B0H.5 DATA     BIT       T1
*SFR* 00000090H   DATA     BIT       T2
*SFR* 00000090H.4 DATA     BIT       T2_
*SFR* 000000CEH   DATA     WORD      T2CAP1
*SFR* 000000CFH   DATA     BYTE      T2CAP1H
*SFR* 000000CEH   DATA     BYTE      T2CAP1L
*SFR* 000000C8H   DATA     BYTE      T2CON
*SFR* 000000CCH   DATA     WORD      T2COUNT
*SFR* 00000090H.1 DATA     BIT       T2EX
*SFR* 000000C9H   DATA     BYTE      T2MOD
*SFR* 00000098H.3 DATA     BIT       TB8
*SFR* 000000C8H.4 DATA     BIT       TCLK
*SFR* 00000088H   DATA     BYTE      TCON
*SFR* 00000088H.5 DATA     BIT       TF0
*SFR* 00000088H.7 DATA     BIT       TF1
*SFR* 000000C8H.7 DATA     BIT       TF2
*SFR* 0000008CH   DATA     BYTE      TH0
*SFR* 0000008DH   DATA     BYTE      TH1
*SFR* 000000CDH   DATA     BYTE      TH2
*SFR* 00000098H.1 DATA     BIT       TI
      0000000CH   IDATA    WORD      Time_Capture
      02000164H   XDATA    WORD      Time_Color
      0200015EH   XDATA    WORD      Time_Wait
      0100199FH   CODE     ---       Timer0_Update
      01001CACH   CODE     ---       Timer1_Update
      01000EF6H   CODE     ---       Timer2_Capture
      01001D2AH   CODE     ---       Timer2_InputCapture_Init
*SFR* 00000090H   DATA     BIT       TIN0
*SFR* 00000090H.1 DATA     BIT       TIN1
*SFR* 00000090H.4 DATA     BIT       TIN2
*SFR* 00000090H.5 DATA     BIT       TIN3
*SFR* 00000090H.6 DATA     BIT       TIN4
*SFR* 00000090H.7 DATA     BIT       TIN5
*SFR* 000000C3H   DATA     BYTE      TKEY_CTRL
*SFR* 000000C4H   DATA     WORD      TKEY_DAT
*SFR* 000000C5H   DATA     BYTE      TKEY_DATH
*SFR* 000000C4H   DATA     BYTE      TKEY_DATL
*SFR* 0000008AH   DATA     BYTE      TL0
*SFR* 0000008BH   DATA     BYTE      TL1
*SFR* 000000CCH   DATA     BYTE      TL2
*SFR* 00000089H   DATA     BYTE      TMOD
      020000E9H   XDATA    DWORD     Tongle_Led
*SFR* 00000088H.4 DATA     BIT       TR0
*SFR* 00000088H.6 DATA     BIT       TR1
*SFR* 000000C8H.2 DATA     BIT       TR2
*SFR* 000000B0H.1 DATA     BIT       TXD
*SFR* 00000090H.7 DATA     BIT       TXD1
*SFR* 000000B0H.2 DATA     BIT       TXD1_
*SFR* 00000090H.3 DATA     BIT       TXD_
*SFR* 000000C0H.2 DATA     BIT       U1RB8
*SFR* 000000C0H.4 DATA     BIT       U1REN
*SFR* 000000C0H   DATA     BIT       U1RI
*SFR* 000000C0H.7 DATA     BIT       U1SM0
*SFR* 000000C0H.5 DATA     BIT       U1SMOD
*SFR* 000000C0H.3 DATA     BIT       U1TB8
*SFR* 000000C0H.1 DATA     BIT       U1TI
      0200016BH   XDATA    BYTE      u8TH0_Tmp
      0200016CH   XDATA    BYTE      u8TH1_Tmp
      0200016DH   XDATA    BYTE      u8TL0_Tmp
      0200016EH   XDATA    BYTE      u8TL1_Tmp
LX51 LINKER/LOCATER V4.41                                                             12/15/2025  10:37:13  PAGE 10


*SFR* 000000D8H.7 DATA     BIT       U_IS_NAK
*SFR* 000000D8H.5 DATA     BIT       U_SIE_FREE
*SFR* 000000D8H.6 DATA     BIT       U_TOG_OK
      0100000EH   CODE     ---       UART1Setup
*SFR* 00000090H.4 DATA     BIT       UCC1
*SFR* 00000090H.5 DATA     BIT       UCC2
*SFR* 000000D1H   DATA     BYTE      UDEV_CTRL
*SFR* 000000B0H.7 DATA     BIT       UDM
*SFR* 000000B0H.6 DATA     BIT       UDP
*SFR* 000000DCH   DATA     BYTE      UEP0_CTRL
*SFR* 000000ECH   DATA     WORD      UEP0_DMA
*SFR* 000000EDH   DATA     BYTE      UEP0_DMA_H
*SFR* 000000ECH   DATA     BYTE      UEP0_DMA_L
*SFR* 000000DDH   DATA     BYTE      UEP0_T_LEN
*SFR* 000000D2H   DATA     BYTE      UEP1_CTRL
*SFR* 000000EEH   DATA     WORD      UEP1_DMA
*SFR* 000000EFH   DATA     BYTE      UEP1_DMA_H
*SFR* 000000EEH   DATA     BYTE      UEP1_DMA_L
*SFR* 000000D3H   DATA     BYTE      UEP1_T_LEN
*SFR* 000000EBH   DATA     BYTE      UEP2_3_MOD
*SFR* 000000D4H   DATA     BYTE      UEP2_CTRL
*SFR* 000000E4H   DATA     WORD      UEP2_DMA
*SFR* 000000E5H   DATA     BYTE      UEP2_DMA_H
*SFR* 000000E4H   DATA     BYTE      UEP2_DMA_L
*SFR* 000000D5H   DATA     BYTE      UEP2_T_LEN
*SFR* 000000D6H   DATA     BYTE      UEP3_CTRL
*SFR* 000000E6H   DATA     WORD      UEP3_DMA
*SFR* 000000E7H   DATA     BYTE      UEP3_DMA_H
*SFR* 000000E6H   DATA     BYTE      UEP3_DMA_L
*SFR* 000000D7H   DATA     BYTE      UEP3_T_LEN
*SFR* 000000EAH   DATA     BYTE      UEP4_1_MOD
*SFR* 000000DEH   DATA     BYTE      UEP4_CTRL
*SFR* 000000DFH   DATA     BYTE      UEP4_T_LEN
*SFR* 000000D8H   DATA     BIT       UIF_BUS_RST
*SFR* 000000D8H   DATA     BIT       UIF_DETECT
*SFR* 000000D8H.4 DATA     BIT       UIF_FIFO_OV
*SFR* 000000D8H.3 DATA     BIT       UIF_HST_SOF
*SFR* 000000D8H.2 DATA     BIT       UIF_SUSPEND
*SFR* 000000D8H.1 DATA     BIT       UIF_TRANSFER
*SFR* 00000091H   DATA     BYTE      USB_C_CTRL
*SFR* 000000E2H   DATA     BYTE      USB_CTRL
*SFR* 000000E3H   DATA     BYTE      USB_DEV_AD
*SFR* 000000E1H   DATA     BYTE      USB_INT_EN
*SFR* 000000D8H   DATA     BYTE      USB_INT_FG
*SFR* 000000D9H   DATA     BYTE      USB_INT_ST
*SFR* 000000DAH   DATA     BYTE      USB_MIS_ST
*SFR* 000000DBH   DATA     BYTE      USB_RX_LEN
      01002318H   CONST    DWORD     VALUE1
      0200008EH   XDATA    DWORD     VALUE1Ram
      0100231CH   CONST    DWORD     VALUE2
      02000092H   XDATA    DWORD     VALUE2Ram
      01002320H   CONST    DWORD     VALUE3
      02000096H   XDATA    DWORD     VALUE3Ram
*SFR* 000000B0H.2 DATA     BIT       VBUS1
*SFR* 00000090H.1 DATA     BIT       VBUS2
*SFR* 000000A9H   DATA     BYTE      WAKE_CTRL
*SFR* 000000FFH   DATA     BYTE      WDOG_COUNT
*SFR* 000000A2H   DATA     BYTE      XBUS_AUX



SYMBOL TABLE OF MODULE:  ch554_txm (DEBUG)

      VALUE       REP       CLASS    TYPE      SYMBOL NAME
      ====================================================
LX51 LINKER/LOCATER V4.41                                                             12/15/2025  10:37:13  PAGE 11


      ---         MODULE    ---      ---       DEBUG
      01000003H   PUBLIC    CODE     ---       _CH554WDTFeed
      01001D61H   PUBLIC    CODE     ---       _CH554WDTModeSelect
      0100000EH   PUBLIC    CODE     ---       UART1Setup
      0100076CH   PUBLIC    CODE     ---       mInitSTDIO
      01001D48H   PUBLIC    CODE     ---       _mDelaymS
      0100002EH   PUBLIC    CODE     ---       _mDelayuS
      01001D8EH   PUBLIC    CODE     ---       CfgFsys
      000000D8H.3 SFRSYM    DATA     BIT       UIF_HST_SOF
      000000B0H.4 SFRSYM    DATA     BIT       RXD1_
      000000D8H   SFRSYM    DATA     BIT       UIF_DETECT
      00000090H   SFRSYM    DATA     BYTE      P1
      000000E2H   SFRSYM    DATA     BYTE      USB_CTRL
      000000B0H.2 SFRSYM    DATA     BIT       TXD1_
      000000A0H   SFRSYM    DATA     BYTE      P2
      000000B0H   SFRSYM    DATA     BYTE      P3
      000000B0H.4 SFRSYM    DATA     BIT       T0
      000000D0H.6 SFRSYM    DATA     BIT       AC
      000000FBH   SFRSYM    DATA     BYTE      SPI0_CK_SE
      000000B0H.5 SFRSYM    DATA     BIT       T1
      000000B0H   SFRSYM    DATA     BIT       PWM1_
      00000090H   SFRSYM    DATA     BIT       CAP1
      00000090H   SFRSYM    DATA     BIT       T2
      00000086H   SFRSYM    DATA     BYTE      ROM_CTRL
      000000A8H.6 SFRSYM    DATA     BIT       E_DIS
      000000A8H.7 SFRSYM    DATA     BIT       EA
      000000F8H.3 SFRSYM    DATA     BIT       S0_FREE
      000000B0H.1 SFRSYM    DATA     BIT       PWM2_
      00000090H.1 SFRSYM    DATA     BIT       CAP2
      000000F8H.4 SFRSYM    DATA     BIT       S0_IF_BYTE
      00000090H.1 SFRSYM    DATA     BIT       AIN0
      00000090H.4 SFRSYM    DATA     BIT       AIN1
      000000D8H   SFRSYM    DATA     BIT       UIF_BUS_RST
      000000F8H.7 SFRSYM    DATA     BIT       S0_FST_ACT
      00000090H.5 SFRSYM    DATA     BIT       AIN2
      0000009DH   SFRSYM    DATA     BYTE      PWM_CTRL
      000000B0H.2 SFRSYM    DATA     BIT       AIN3
      000000E8H   SFRSYM    DATA     BIT       IE_SPI0
      000000E8H   SFRSYM    DATA     BYTE      IE_EX
      000000FEH   SFRSYM    DATA     BYTE      RESET_KEEP
      000000D8H.7 SFRSYM    DATA     BIT       U_IS_NAK
      000000CEH   SFRSYM    DATA     WORD      T2CAP1
      00000090H.4 SFRSYM    DATA     BIT       UCC1
      00000090H.5 SFRSYM    DATA     BIT       UCC2
      000000A8H   SFRSYM    DATA     BYTE      IE
      000000DDH   SFRSYM    DATA     BYTE      UEP0_T_LEN
      000000E3H   SFRSYM    DATA     BYTE      USB_DEV_AD
      000000D3H   SFRSYM    DATA     BYTE      UEP1_T_LEN
      000000FCH   SFRSYM    DATA     BYTE      SPI0_SETUP
      000000D5H   SFRSYM    DATA     BYTE      UEP2_T_LEN
      000000CCH   SFRSYM    DATA     WORD      T2COUNT
      000000D7H   SFRSYM    DATA     BYTE      UEP3_T_LEN
      000000A2H   SFRSYM    DATA     BYTE      XBUS_AUX
      0000008FH   SFRSYM    DATA     BYTE      ROM_DATA_H
      000000DFH   SFRSYM    DATA     BYTE      UEP4_T_LEN
      00000085H   SFRSYM    DATA     BYTE      ROM_ADDR_H
      000000B8H.7 SFRSYM    DATA     BIT       PH_FLAG
      000000C8H.6 SFRSYM    DATA     BIT       EXF2
      0000008EH   SFRSYM    DATA     BYTE      ROM_DATA_L
      000000E9H   SFRSYM    DATA     BYTE      IP_EX
      00000084H   SFRSYM    DATA     BYTE      ROM_ADDR_L
      000000B8H.6 SFRSYM    DATA     BIT       PL_FLAG
      000000A8H.4 SFRSYM    DATA     BIT       ES
      000000F9H   SFRSYM    DATA     BYTE      SPI0_DATA
      000000B8H   SFRSYM    DATA     BYTE      IP
LX51 LINKER/LOCATER V4.41                                                             12/15/2025  10:37:13  PAGE 12


      000000D8H.5 SFRSYM    DATA     BIT       U_SIE_FREE
      000000D8H.6 SFRSYM    DATA     BIT       U_TOG_OK
      00000098H   SFRSYM    DATA     BIT       RI
      000000B0H.2 SFRSYM    DATA     BIT       INT0
      00000090H   SFRSYM    DATA     BIT       TIN0
      000000D0H.7 SFRSYM    DATA     BIT       CY
      00000098H.1 SFRSYM    DATA     BIT       TI
      000000B0H.3 SFRSYM    DATA     BIT       INT1
      00000090H.1 SFRSYM    DATA     BIT       TIN1
      00000090H.4 SFRSYM    DATA     BIT       TIN2
      000000FFH   SFRSYM    DATA     BYTE      WDOG_COUNT
      00000090H.5 SFRSYM    DATA     BIT       TIN3
      000000C7H   SFRSYM    DATA     BYTE      GPIO_IE
      000000E8H.6 SFRSYM    DATA     BIT       IE_GPIO
      000000B9H   SFRSYM    DATA     BYTE      CLOCK_CFG
      00000090H.6 SFRSYM    DATA     BIT       TIN4
      00000090H.6 SFRSYM    DATA     BIT       RXD1
      00000090H.7 SFRSYM    DATA     BIT       TIN5
      000000E8H.7 SFRSYM    DATA     BIT       IE_WDOG
      000000C2H   SFRSYM    DATA     BYTE      SBAUD1
      000000C0H   SFRSYM    DATA     BIT       U1RI
      0000009CH   SFRSYM    DATA     BYTE      PWM_DATA1
      000000CBH   SFRSYM    DATA     BYTE      RCAP2H
      00000090H.7 SFRSYM    DATA     BIT       TXD1
      0000009BH   SFRSYM    DATA     BYTE      PWM_DATA2
      000000B8H.4 SFRSYM    DATA     BIT       PS
      00000081H   SFRSYM    DATA     BYTE      SP
      000000C0H.1 SFRSYM    DATA     BIT       U1TI
      00000090H.1 SFRSYM    DATA     BIT       T2EX
      000000D8H   SFRSYM    DATA     BYTE      USB_INT_FG
      00000091H   SFRSYM    DATA     BYTE      USB_C_CTRL
      000000D0H.2 SFRSYM    DATA     BIT       OV
      000000CAH   SFRSYM    DATA     BYTE      RCAP2L
      00000090H.5 SFRSYM    DATA     BIT       PWM1
      000000B0H.4 SFRSYM    DATA     BIT       PWM2
      000000C8H.1 SFRSYM    DATA     BIT       C_T2
      000000E1H   SFRSYM    DATA     BYTE      USB_INT_EN
      000000C8H.5 SFRSYM    DATA     BIT       RCLK
      000000E8H.1 SFRSYM    DATA     BIT       IE_TKEY
      000000D8H.1 SFRSYM    DATA     BIT       UIF_TRANSFER
      000000C8H.4 SFRSYM    DATA     BIT       TCLK
      00000080H.7 SFRSYM    DATA     BIT       CMPO
      00000099H   SFRSYM    DATA     BYTE      SBUF
      00000087H   SFRSYM    DATA     BYTE      PCON
      000000DCH   SFRSYM    DATA     BYTE      UEP0_CTRL
      000000D2H   SFRSYM    DATA     BYTE      UEP1_CTRL
      000000D4H   SFRSYM    DATA     BYTE      UEP2_CTRL
      000000FAH   SFRSYM    DATA     BYTE      SPI0_CTRL
      00000098H   SFRSYM    DATA     BYTE      SCON
      000000D6H   SFRSYM    DATA     BYTE      UEP3_CTRL
      00000089H   SFRSYM    DATA     BYTE      TMOD
      00000088H   SFRSYM    DATA     BYTE      TCON
      00000092H   SFRSYM    DATA     BYTE      P1_MOD_OC
      000000DEH   SFRSYM    DATA     BYTE      UEP4_CTRL
      000000DBH   SFRSYM    DATA     BYTE      USB_RX_LEN
      00000096H   SFRSYM    DATA     BYTE      P3_MOD_OC
      000000E8H.3 SFRSYM    DATA     BIT       IE_ADC
      00000080H.5 SFRSYM    DATA     BIT       ADC_IF
      00000080H.4 SFRSYM    DATA     BIT       ADC_START
      00000090H.5 SFRSYM    DATA     BIT       MOSI
      00000090H.6 SFRSYM    DATA     BIT       MISO
      000000C0H.5 SFRSYM    DATA     BIT       U1SMOD
      000000F8H   SFRSYM    DATA     BIT       S0_R_FIFO
      000000F8H   SFRSYM    DATA     BYTE      SPI0_STAT
      000000E8H.5 SFRSYM    DATA     BIT       IE_PWMX
LX51 LINKER/LOCATER V4.41                                                             12/15/2025  10:37:13  PAGE 13


      000000DAH   SFRSYM    DATA     BYTE      USB_MIS_ST
      000000F8H.2 SFRSYM    DATA     BIT       S0_T_FIFO
      00000088H.1 SFRSYM    DATA     BIT       IE0
      000000D9H   SFRSYM    DATA     BYTE      USB_INT_ST
      00000088H.3 SFRSYM    DATA     BIT       IE1
      000000A9H   SFRSYM    DATA     BYTE      WAKE_CTRL
      000000C5H   SFRSYM    DATA     BYTE      TKEY_DATH
      000000F0H   SFRSYM    DATA     BYTE      B
      0000009FH   SFRSYM    DATA     BYTE      ADC_DATA
      000000C8H   SFRSYM    DATA     BIT       CP_RL2
      000000C4H   SFRSYM    DATA     BYTE      TKEY_DATL
      00000093H   SFRSYM    DATA     BYTE      P1_DIR_PU
      000000E0H   SFRSYM    DATA     BYTE      ACC
      00000097H   SFRSYM    DATA     BYTE      P3_DIR_PU
      000000A8H.1 SFRSYM    DATA     BIT       ET0
      00000088H.5 SFRSYM    DATA     BIT       TF0
      000000A8H.3 SFRSYM    DATA     BIT       ET1
      00000088H.7 SFRSYM    DATA     BIT       TF1
      000000A8H.5 SFRSYM    DATA     BIT       ET2
      000000D1H   SFRSYM    DATA     BYTE      UDEV_CTRL
      000000C8H.7 SFRSYM    DATA     BIT       CAP1F
      000000C8H.7 SFRSYM    DATA     BIT       TF2
      00000098H.2 SFRSYM    DATA     BIT       RB8
      0000008CH   SFRSYM    DATA     BYTE      TH0
      0000008DH   SFRSYM    DATA     BYTE      TH1
      00000088H   SFRSYM    DATA     BIT       IT0
      000000A8H   SFRSYM    DATA     BIT       EX0
      000000ECH   SFRSYM    DATA     WORD      UEP0_DMA
      000000CDH   SFRSYM    DATA     BYTE      TH2
      00000098H.3 SFRSYM    DATA     BIT       TB8
      00000088H.2 SFRSYM    DATA     BIT       IT1
      00000090H.2 SFRSYM    DATA     BIT       RXD_
      000000A8H.2 SFRSYM    DATA     BIT       EX1
      000000EEH   SFRSYM    DATA     WORD      UEP1_DMA
      000000D0H   SFRSYM    DATA     BIT       P
      000000E4H   SFRSYM    DATA     WORD      UEP2_DMA
      00000080H.6 SFRSYM    DATA     BIT       CMP_IF
      00000098H.7 SFRSYM    DATA     BIT       SM0
      0000008AH   SFRSYM    DATA     BYTE      TL0
      00000090H.3 SFRSYM    DATA     BIT       TXD_
      000000E6H   SFRSYM    DATA     WORD      UEP3_DMA
      00000098H.6 SFRSYM    DATA     BIT       SM1
      0000008BH   SFRSYM    DATA     BYTE      TL1
      000000CCH   SFRSYM    DATA     BYTE      TL2
      00000098H.5 SFRSYM    DATA     BIT       SM2
      000000C0H.2 SFRSYM    DATA     BIT       U1RB8
      000000B8H.1 SFRSYM    DATA     BIT       PT0
      000000C3H   SFRSYM    DATA     BYTE      TKEY_CTRL
      000000C0H.3 SFRSYM    DATA     BIT       U1TB8
      000000CFH   SFRSYM    DATA     BYTE      T2CAP1H
      000000B8H.3 SFRSYM    DATA     BIT       PT1
      000000D0H.3 SFRSYM    DATA     BIT       RS0
      00000088H.4 SFRSYM    DATA     BIT       TR0
      000000B8H.5 SFRSYM    DATA     BIT       PT2
      000000D0H.4 SFRSYM    DATA     BIT       RS1
      000000C0H.7 SFRSYM    DATA     BIT       U1SM0
      00000088H.6 SFRSYM    DATA     BIT       TR1
      000000C8H.2 SFRSYM    DATA     BIT       TR2
      000000B8H   SFRSYM    DATA     BIT       PX0
      000000CEH   SFRSYM    DATA     BYTE      T2CAP1L
      000000CAH   SFRSYM    DATA     WORD      RCAP2
      000000E8H.2 SFRSYM    DATA     BIT       IE_USB
      000000B8H.2 SFRSYM    DATA     BIT       PX1
      00000080H.3 SFRSYM    DATA     BIT       CMP_CHAN
      0000009EH   SFRSYM    DATA     BYTE      PWM_CK_SE
LX51 LINKER/LOCATER V4.41                                                             12/15/2025  10:37:13  PAGE 14


      00000083H   SFRSYM    DATA     BYTE      DPH
      000000F8H.5 SFRSYM    DATA     BIT       S0_IF_FIRST
      000000E8H.4 SFRSYM    DATA     BIT       IE_UART1
      00000080H   SFRSYM    DATA     BYTE      ADC_CTRL
      00000082H   SFRSYM    DATA     BYTE      DPL
      00000090H.7 SFRSYM    DATA     BIT       SCK
      000000A1H   SFRSYM    DATA     BYTE      SAFE_MOD
      000000C1H   SFRSYM    DATA     BYTE      SBUF1
      000000C8H.3 SFRSYM    DATA     BIT       EXEN2
      000000B1H   SFRSYM    DATA     BYTE      GLOBAL_CFG
      000000C0H   SFRSYM    DATA     BYTE      SCON1
      00000098H.4 SFRSYM    DATA     BIT       REN
      00000090H.4 SFRSYM    DATA     BIT       CAP1_
      00000090H.4 SFRSYM    DATA     BIT       T2_
      000000B0H.7 SFRSYM    DATA     BIT       UDM
      000000C9H   SFRSYM    DATA     BYTE      T2MOD
      000000C8H   SFRSYM    DATA     BYTE      T2CON
      000000B0H.6 SFRSYM    DATA     BIT       UDP
      00000090H.4 SFRSYM    DATA     BIT       SCS
      000000D8H.2 SFRSYM    DATA     BIT       UIF_SUSPEND
      0000008EH   SFRSYM    DATA     WORD      ROM_DATA
      00000084H   SFRSYM    DATA     WORD      ROM_ADDR
      000000C0H.4 SFRSYM    DATA     BIT       U1REN
      000000B0H   SFRSYM    DATA     BIT       RXD
      000000D8H.4 SFRSYM    DATA     BIT       UIF_FIFO_OV
      000000B0H.1 SFRSYM    DATA     BIT       TXD
      000000EBH   SFRSYM    DATA     BYTE      UEP2_3_MOD
      000000EAH   SFRSYM    DATA     BYTE      UEP4_1_MOD
      000000B0H.2 SFRSYM    DATA     BIT       VBUS1
      00000090H.1 SFRSYM    DATA     BIT       VBUS2
      00000080H   SFRSYM    DATA     BIT       ADC_CHAN0
      00000080H.1 SFRSYM    DATA     BIT       ADC_CHAN1
      000000C6H   SFRSYM    DATA     BYTE      PIN_FUNC
      000000D0H.5 SFRSYM    DATA     BIT       F0
      000000EDH   SFRSYM    DATA     BYTE      UEP0_DMA_H
      000000D0H.1 SFRSYM    DATA     BIT       F1
      000000EFH   SFRSYM    DATA     BYTE      UEP1_DMA_H
      000000E5H   SFRSYM    DATA     BYTE      UEP2_DMA_H
      000000C4H   SFRSYM    DATA     WORD      TKEY_DAT
      000000F8H.6 SFRSYM    DATA     BIT       S0_IF_OV
      000000E7H   SFRSYM    DATA     BYTE      UEP3_DMA_H
      0000009AH   SFRSYM    DATA     BYTE      ADC_CFG
      000000ECH   SFRSYM    DATA     BYTE      UEP0_DMA_L
      000000D0H   SFRSYM    DATA     BYTE      PSW
      000000EEH   SFRSYM    DATA     BYTE      UEP1_DMA_L
      000000E4H   SFRSYM    DATA     BYTE      UEP2_DMA_L
      000000E6H   SFRSYM    DATA     BYTE      UEP3_DMA_L

      01001D8EH   BLOCK     CODE     ---       LVL=0
      01001D8EH   LINE      CODE     ---       #25
      01001D8EH   LINE      CODE     ---       #26
      01001D8EH   LINE      CODE     ---       #27
      01001D91H   LINE      CODE     ---       #28
      01001D94H   LINE      CODE     ---       #33
      01001D9CH   LINE      CODE     ---       #50
      01001D9FH   LINE      CODE     ---       #51
      ---         BLOCKEND  ---      ---       LVL=0

      0100002EH   BLOCK     CODE     ---       LVL=0
      00000006H   SYMBOL    DATA     WORD      n
      0100002EH   LINE      CODE     ---       #60
      0100002EH   LINE      CODE     ---       #61
      0100002EH   LINE      CODE     ---       #73
      01000032H   LINE      CODE     ---       #74
      01000034H   LINE      CODE     ---       #77
LX51 LINKER/LOCATER V4.41                                                             12/15/2025  10:37:13  PAGE 15


      01000036H   LINE      CODE     ---       #80
      01000038H   LINE      CODE     ---       #83
      0100003AH   LINE      CODE     ---       #86
      0100003CH   LINE      CODE     ---       #89
      0100003EH   LINE      CODE     ---       #92
      01000040H   LINE      CODE     ---       #107
      01000045H   LINE      CODE     ---       #108
      01000047H   LINE      CODE     ---       #109
      ---         BLOCKEND  ---      ---       LVL=0

      01001D48H   BLOCK     CODE     ---       LVL=0
      00000004H   SYMBOL    DATA     WORD      n
      01001D48H   LINE      CODE     ---       #118
      01001D4EH   LINE      CODE     ---       #119
      01001D4EH   LINE      CODE     ---       #120
      01001D52H   LINE      CODE     ---       #125
      01001D59H   LINE      CODE     ---       #127
      01001D5EH   LINE      CODE     ---       #128
      01001D60H   LINE      CODE     ---       #129
      ---         BLOCKEND  ---      ---       LVL=0

      0100076CH   BLOCK     CODE     ---       LVL=0
      0100076CH   BLOCK     CODE     NEAR LAB  LVL=1
      02000166H   SYMBOL    XDATA    DWORD     x
      0200016AH   SYMBOL    XDATA    BYTE      x2
      ---         BLOCKEND  ---      ---       LVL=1
      0100076CH   LINE      CODE     ---       #151
      0100076CH   LINE      CODE     ---       #152
      0100076CH   LINE      CODE     ---       #156
      0100076EH   LINE      CODE     ---       #157
      01000770H   LINE      CODE     ---       #158
      01000772H   LINE      CODE     ---       #160
      01000774H   LINE      CODE     ---       #161
      01000776H   LINE      CODE     ---       #162
      01000779H   LINE      CODE     ---       #163
      01000783H   LINE      CODE     ---       #164
      01000797H   LINE      CODE     ---       #165
      010007ACH   LINE      CODE     ---       #166
      010007CEH   LINE      CODE     ---       #168
      010007D6H   LINE      CODE     ---       #169
      010007D9H   LINE      CODE     ---       #170
      010007E4H   LINE      CODE     ---       #171
      010007E6H   LINE      CODE     ---       #172
      010007E8H   LINE      CODE     ---       #173
      010007EAH   LINE      CODE     ---       #174
      ---         BLOCKEND  ---      ---       LVL=0

      0100000EH   BLOCK     CODE     ---       LVL=0
      0100000EH   LINE      CODE     ---       #212
      0100000EH   LINE      CODE     ---       #213
      0100000EH   LINE      CODE     ---       #214
      01000010H   LINE      CODE     ---       #215
      01000012H   LINE      CODE     ---       #216
      01000014H   LINE      CODE     ---       #217
      01000017H   LINE      CODE     ---       #218
      ---         BLOCKEND  ---      ---       LVL=0

      01001D61H   BLOCK     CODE     ---       LVL=0
      00000007H   SYMBOL    DATA     BYTE      mode
      01001D61H   LINE      CODE     ---       #257
      01001D61H   LINE      CODE     ---       #258
      01001D61H   LINE      CODE     ---       #259
      01001D64H   LINE      CODE     ---       #260
      01001D67H   LINE      CODE     ---       #261
      01001D6AH   LINE      CODE     ---       #262
LX51 LINKER/LOCATER V4.41                                                             12/15/2025  10:37:13  PAGE 16


      01001D6DH   LINE      CODE     ---       #263
      01001D6FH   LINE      CODE     ---       #264
      01001D72H   LINE      CODE     ---       #265
      01001D75H   LINE      CODE     ---       #266
      01001D77H   LINE      CODE     ---       #267
      ---         BLOCKEND  ---      ---       LVL=0

      01000003H   BLOCK     CODE     ---       LVL=0
      00000007H   SYMBOL    DATA     BYTE      tim
      01000003H   LINE      CODE     ---       #278
      01000003H   LINE      CODE     ---       #279
      01000003H   LINE      CODE     ---       #280
      01000005H   LINE      CODE     ---       #281
      ---         BLOCKEND  ---      ---       LVL=0

      ---         MODULE    ---      ---       MAIN
      020000FCH   PUBLIC    XDATA    DWORD     IR_Data
      020000F8H   PUBLIC    XDATA    DWORD     stat_but_music
      020000F5H   PUBLIC    XDATA    ---       DataFlash
      020000F1H   PUBLIC    XDATA    DWORD     j
      020000EDH   PUBLIC    XDATA    DWORD     i
      020000E9H   PUBLIC    XDATA    DWORD     Tongle_Led
      020000A9H   PUBLIC    XDATA    ---       key_colorMH
      0200009EH   PUBLIC    XDATA    ---       RGB_DataRam
      0200009AH   PUBLIC    XDATA    DWORD     color_disp_old
      02000096H   PUBLIC    XDATA    DWORD     VALUE3Ram
      02000092H   PUBLIC    XDATA    DWORD     VALUE2Ram
      0200008EH   PUBLIC    XDATA    DWORD     VALUE1Ram
      00000024H   PUBLIC    IDATA    BYTE      Run_Effect_Done
      0200004EH   PUBLIC    XDATA    ---       key_color
      00000023H   PUBLIC    IDATA    BYTE      Flag_IR_Convert
      0200004AH   PUBLIC    XDATA    DWORD     color_disp
      00000020H.0 PUBLIC    BIT      BIT       BIT_TMP
      02000046H   PUBLIC    XDATA    DWORD     stat_but_sp
      02000006H   PUBLIC    XDATA    ---       color
      02000005H   PUBLIC    XDATA    BYTE      start_select_color
      02000001H   PUBLIC    XDATA    DWORD     stat_but_dd
      00000022H   PUBLIC    IDATA    BYTE      Display_Effect
      02000000H   PUBLIC    XDATA    BYTE      dB_Data
      00000021H   PUBLIC    IDATA    BYTE      Flag_Speed_Effect
      01002320H   PUBLIC    CONST    DWORD     VALUE3
      0100231CH   PUBLIC    CONST    DWORD     VALUE2
      01002318H   PUBLIC    CONST    DWORD     VALUE1
      01001000H   PUBLIC    CODE     ---       handler_color_button
      01001800H   PUBLIC    CODE     ---       main
      000000D8H.3 SFRSYM    DATA     BIT       UIF_HST_SOF
      000000B0H.4 SFRSYM    DATA     BIT       RXD1_
      000000D8H   SFRSYM    DATA     BIT       UIF_DETECT
      00000090H   SFRSYM    DATA     BYTE      P1
      000000E2H   SFRSYM    DATA     BYTE      USB_CTRL
      000000B0H.2 SFRSYM    DATA     BIT       TXD1_
      000000A0H   SFRSYM    DATA     BYTE      P2
      000000B0H   SFRSYM    DATA     BYTE      P3
      00000090H   SFRSYM    DATA     BIT       GPIO_GREEN
      000000B0H.4 SFRSYM    DATA     BIT       T0
      000000D0H.6 SFRSYM    DATA     BIT       AC
      000000FBH   SFRSYM    DATA     BYTE      SPI0_CK_SE
      000000B0H.5 SFRSYM    DATA     BIT       T1
      000000B0H   SFRSYM    DATA     BIT       PWM1_
      00000090H   SFRSYM    DATA     BIT       CAP1
      00000090H   SFRSYM    DATA     BIT       T2
      00000086H   SFRSYM    DATA     BYTE      ROM_CTRL
      000000A8H.6 SFRSYM    DATA     BIT       E_DIS
      000000A8H.7 SFRSYM    DATA     BIT       EA
      000000F8H.3 SFRSYM    DATA     BIT       S0_FREE
LX51 LINKER/LOCATER V4.41                                                             12/15/2025  10:37:13  PAGE 17


      000000B0H.1 SFRSYM    DATA     BIT       PWM2_
      00000090H.1 SFRSYM    DATA     BIT       CAP2
      00000090H.7 SFRSYM    DATA     BIT       LED_R
      00000090H.5 SFRSYM    DATA     BIT       LED2
      000000F8H.4 SFRSYM    DATA     BIT       S0_IF_BYTE
      00000090H.1 SFRSYM    DATA     BIT       AIN0
      00000090H.4 SFRSYM    DATA     BIT       AIN1
      000000D8H   SFRSYM    DATA     BIT       UIF_BUS_RST
      000000F8H.7 SFRSYM    DATA     BIT       S0_FST_ACT
      00000090H.5 SFRSYM    DATA     BIT       AIN2
      0000009DH   SFRSYM    DATA     BYTE      PWM_CTRL
      000000B0H.2 SFRSYM    DATA     BIT       AIN3
      000000E8H   SFRSYM    DATA     BIT       IE_SPI0
      000000E8H   SFRSYM    DATA     BYTE      IE_EX
      000000FEH   SFRSYM    DATA     BYTE      RESET_KEEP
      000000D8H.7 SFRSYM    DATA     BIT       U_IS_NAK
      000000CEH   SFRSYM    DATA     WORD      T2CAP1
      00000090H.4 SFRSYM    DATA     BIT       UCC1
      00000090H.5 SFRSYM    DATA     BIT       UCC2
      000000A8H   SFRSYM    DATA     BYTE      IE
      000000DDH   SFRSYM    DATA     BYTE      UEP0_T_LEN
      000000E3H   SFRSYM    DATA     BYTE      USB_DEV_AD
      000000D3H   SFRSYM    DATA     BYTE      UEP1_T_LEN
      000000FCH   SFRSYM    DATA     BYTE      SPI0_SETUP
      000000D5H   SFRSYM    DATA     BYTE      UEP2_T_LEN
      000000CCH   SFRSYM    DATA     WORD      T2COUNT
      000000D7H   SFRSYM    DATA     BYTE      UEP3_T_LEN
      000000A2H   SFRSYM    DATA     BYTE      XBUS_AUX
      0000008FH   SFRSYM    DATA     BYTE      ROM_DATA_H
      000000B0H.3 SFRSYM    DATA     BIT       BUT_DON_DA
      000000DFH   SFRSYM    DATA     BYTE      UEP4_T_LEN
      00000085H   SFRSYM    DATA     BYTE      ROM_ADDR_H
      000000B8H.7 SFRSYM    DATA     BIT       PH_FLAG
      000000C8H.6 SFRSYM    DATA     BIT       EXF2
      0000008EH   SFRSYM    DATA     BYTE      ROM_DATA_L
      000000E9H   SFRSYM    DATA     BYTE      IP_EX
      00000084H   SFRSYM    DATA     BYTE      ROM_ADDR_L
      000000B8H.6 SFRSYM    DATA     BIT       PL_FLAG
      000000A8H.4 SFRSYM    DATA     BIT       ES
      000000F9H   SFRSYM    DATA     BYTE      SPI0_DATA
      000000B8H   SFRSYM    DATA     BYTE      IP
      000000D8H.5 SFRSYM    DATA     BIT       U_SIE_FREE
      000000D8H.6 SFRSYM    DATA     BIT       U_TOG_OK
      00000098H   SFRSYM    DATA     BIT       RI
      000000B0H.2 SFRSYM    DATA     BIT       INT0
      00000090H   SFRSYM    DATA     BIT       TIN0
      000000D0H.7 SFRSYM    DATA     BIT       CY
      00000098H.1 SFRSYM    DATA     BIT       TI
      000000B0H.3 SFRSYM    DATA     BIT       INT1
      00000090H.1 SFRSYM    DATA     BIT       TIN1
      00000090H.4 SFRSYM    DATA     BIT       TIN2
      000000FFH   SFRSYM    DATA     BYTE      WDOG_COUNT
      00000090H.5 SFRSYM    DATA     BIT       TIN3
      000000C7H   SFRSYM    DATA     BYTE      GPIO_IE
      000000E8H.6 SFRSYM    DATA     BIT       IE_GPIO
      000000B9H   SFRSYM    DATA     BYTE      CLOCK_CFG
      00000090H.6 SFRSYM    DATA     BIT       TIN4
      00000090H.6 SFRSYM    DATA     BIT       RXD1
      00000090H.7 SFRSYM    DATA     BIT       TIN5
      000000E8H.7 SFRSYM    DATA     BIT       IE_WDOG
      000000C2H   SFRSYM    DATA     BYTE      SBAUD1
      000000C0H   SFRSYM    DATA     BIT       U1RI
      0000009CH   SFRSYM    DATA     BYTE      PWM_DATA1
      000000CBH   SFRSYM    DATA     BYTE      RCAP2H
      00000090H.7 SFRSYM    DATA     BIT       TXD1
LX51 LINKER/LOCATER V4.41                                                             12/15/2025  10:37:13  PAGE 18


      0000009BH   SFRSYM    DATA     BYTE      PWM_DATA2
      000000B8H.4 SFRSYM    DATA     BIT       PS
      00000081H   SFRSYM    DATA     BYTE      SP
      000000C0H.1 SFRSYM    DATA     BIT       U1TI
      00000090H.1 SFRSYM    DATA     BIT       T2EX
      000000D8H   SFRSYM    DATA     BYTE      USB_INT_FG
      00000091H   SFRSYM    DATA     BYTE      USB_C_CTRL
      000000D0H.2 SFRSYM    DATA     BIT       OV
      000000CAH   SFRSYM    DATA     BYTE      RCAP2L
      00000090H.5 SFRSYM    DATA     BIT       PWM1
      000000B0H.4 SFRSYM    DATA     BIT       PWM2
      000000C8H.1 SFRSYM    DATA     BIT       C_T2
      000000B0H.5 SFRSYM    DATA     BIT       LED7_DATA_A
      00000090H.5 SFRSYM    DATA     BIT       LED7_DATA_B
      000000E1H   SFRSYM    DATA     BYTE      USB_INT_EN
      00000090H.6 SFRSYM    DATA     BIT       LED7_DATA_C
      00000090H.4 SFRSYM    DATA     BIT       LED7_DATA_D
      000000C8H.5 SFRSYM    DATA     BIT       RCLK
      000000E8H.1 SFRSYM    DATA     BIT       IE_TKEY
      000000B0H.2 SFRSYM    DATA     BIT       LED7_DATA_E
      000000D8H.1 SFRSYM    DATA     BIT       UIF_TRANSFER
      00000090H.3 SFRSYM    DATA     BIT       LED7_DATA_F
      000000C8H.4 SFRSYM    DATA     BIT       TCLK
      00000090H.2 SFRSYM    DATA     BIT       LED7_DATA_G
      00000080H.7 SFRSYM    DATA     BIT       CMPO
      00000099H   SFRSYM    DATA     BYTE      SBUF
      00000087H   SFRSYM    DATA     BYTE      PCON
      000000DCH   SFRSYM    DATA     BYTE      UEP0_CTRL
      000000D2H   SFRSYM    DATA     BYTE      UEP1_CTRL
      000000D4H   SFRSYM    DATA     BYTE      UEP2_CTRL
      000000FAH   SFRSYM    DATA     BYTE      SPI0_CTRL
      00000098H   SFRSYM    DATA     BYTE      SCON
      000000D6H   SFRSYM    DATA     BYTE      UEP3_CTRL
      00000089H   SFRSYM    DATA     BYTE      TMOD
      00000088H   SFRSYM    DATA     BYTE      TCON
      00000092H   SFRSYM    DATA     BYTE      P1_MOD_OC
      000000DEH   SFRSYM    DATA     BYTE      UEP4_CTRL
      000000DBH   SFRSYM    DATA     BYTE      USB_RX_LEN
      00000096H   SFRSYM    DATA     BYTE      P3_MOD_OC
      000000E8H.3 SFRSYM    DATA     BIT       IE_ADC
      00000080H.5 SFRSYM    DATA     BIT       ADC_IF
      00000080H.4 SFRSYM    DATA     BIT       ADC_START
      00000090H.5 SFRSYM    DATA     BIT       MOSI
      00000090H.6 SFRSYM    DATA     BIT       MISO
      000000B0H.1 SFRSYM    DATA     BIT       GPIO_BLUE
      000000C0H.5 SFRSYM    DATA     BIT       U1SMOD
      000000F8H   SFRSYM    DATA     BIT       S0_R_FIFO
      000000F8H   SFRSYM    DATA     BYTE      SPI0_STAT
      000000E8H.5 SFRSYM    DATA     BIT       IE_PWMX
      000000DAH   SFRSYM    DATA     BYTE      USB_MIS_ST
      000000F8H.2 SFRSYM    DATA     BIT       S0_T_FIFO
      00000088H.1 SFRSYM    DATA     BIT       IE0
      000000B0H   SFRSYM    DATA     BIT       BUT_SPEED
      000000D9H   SFRSYM    DATA     BYTE      USB_INT_ST
      00000088H.3 SFRSYM    DATA     BIT       IE1
      000000A9H   SFRSYM    DATA     BYTE      WAKE_CTRL
      000000C5H   SFRSYM    DATA     BYTE      TKEY_DATH
      000000F0H   SFRSYM    DATA     BYTE      B
      0000009FH   SFRSYM    DATA     BYTE      ADC_DATA
      000000C8H   SFRSYM    DATA     BIT       CP_RL2
      000000C4H   SFRSYM    DATA     BYTE      TKEY_DATL
      00000093H   SFRSYM    DATA     BYTE      P1_DIR_PU
      000000E0H   SFRSYM    DATA     BYTE      ACC
      00000097H   SFRSYM    DATA     BYTE      P3_DIR_PU
      000000A8H.1 SFRSYM    DATA     BIT       ET0
LX51 LINKER/LOCATER V4.41                                                             12/15/2025  10:37:13  PAGE 19


      00000088H.5 SFRSYM    DATA     BIT       TF0
      000000A8H.3 SFRSYM    DATA     BIT       ET1
      00000088H.7 SFRSYM    DATA     BIT       TF1
      000000A8H.5 SFRSYM    DATA     BIT       ET2
      000000D1H   SFRSYM    DATA     BYTE      UDEV_CTRL
      000000C8H.7 SFRSYM    DATA     BIT       CAP1F
      000000C8H.7 SFRSYM    DATA     BIT       TF2
      00000098H.2 SFRSYM    DATA     BIT       RB8
      0000008CH   SFRSYM    DATA     BYTE      TH0
      0000008DH   SFRSYM    DATA     BYTE      TH1
      00000088H   SFRSYM    DATA     BIT       IT0
      000000A8H   SFRSYM    DATA     BIT       EX0
      000000ECH   SFRSYM    DATA     WORD      UEP0_DMA
      000000CDH   SFRSYM    DATA     BYTE      TH2
      00000098H.3 SFRSYM    DATA     BIT       TB8
      00000088H.2 SFRSYM    DATA     BIT       IT1
      00000090H.2 SFRSYM    DATA     BIT       RXD_
      000000A8H.2 SFRSYM    DATA     BIT       EX1
      000000B0H.4 SFRSYM    DATA     BIT       BUT_MUSIC
      000000EEH   SFRSYM    DATA     WORD      UEP1_DMA
      000000D0H   SFRSYM    DATA     BIT       P
      000000E4H   SFRSYM    DATA     WORD      UEP2_DMA
      00000080H.6 SFRSYM    DATA     BIT       CMP_IF
      00000098H.7 SFRSYM    DATA     BIT       SM0
      0000008AH   SFRSYM    DATA     BYTE      TL0
      00000090H.3 SFRSYM    DATA     BIT       TXD_
      000000E6H   SFRSYM    DATA     WORD      UEP3_DMA
      00000098H.6 SFRSYM    DATA     BIT       SM1
      0000008BH   SFRSYM    DATA     BYTE      TL1
      000000CCH   SFRSYM    DATA     BYTE      TL2
      00000098H.5 SFRSYM    DATA     BIT       SM2
      000000C0H.2 SFRSYM    DATA     BIT       U1RB8
      000000B8H.1 SFRSYM    DATA     BIT       PT0
      00000090H.4 SFRSYM    DATA     BIT       LED
      000000C3H   SFRSYM    DATA     BYTE      TKEY_CTRL
      000000C0H.3 SFRSYM    DATA     BIT       U1TB8
      000000CFH   SFRSYM    DATA     BYTE      T2CAP1H
      000000B8H.3 SFRSYM    DATA     BIT       PT1
      000000D0H.3 SFRSYM    DATA     BIT       RS0
      00000088H.4 SFRSYM    DATA     BIT       TR0
      000000B8H.5 SFRSYM    DATA     BIT       PT2
      000000D0H.4 SFRSYM    DATA     BIT       RS1
      000000C0H.7 SFRSYM    DATA     BIT       U1SM0
      00000088H.6 SFRSYM    DATA     BIT       TR1
      000000C8H.2 SFRSYM    DATA     BIT       TR2
      000000B8H   SFRSYM    DATA     BIT       PX0
      000000CEH   SFRSYM    DATA     BYTE      T2CAP1L
      000000CAH   SFRSYM    DATA     WORD      RCAP2
      000000E8H.2 SFRSYM    DATA     BIT       IE_USB
      000000B8H.2 SFRSYM    DATA     BIT       PX1
      00000080H.3 SFRSYM    DATA     BIT       CMP_CHAN
      0000009EH   SFRSYM    DATA     BYTE      PWM_CK_SE
      00000083H   SFRSYM    DATA     BYTE      DPH
      000000F8H.5 SFRSYM    DATA     BIT       S0_IF_FIRST
      000000E8H.4 SFRSYM    DATA     BIT       IE_UART1
      00000080H   SFRSYM    DATA     BYTE      ADC_CTRL
      00000082H   SFRSYM    DATA     BYTE      DPL
      00000090H.7 SFRSYM    DATA     BIT       SCK
      000000A1H   SFRSYM    DATA     BYTE      SAFE_MOD
      000000C1H   SFRSYM    DATA     BYTE      SBUF1
      000000C8H.3 SFRSYM    DATA     BIT       EXEN2
      000000B1H   SFRSYM    DATA     BYTE      GLOBAL_CFG
      000000C0H   SFRSYM    DATA     BYTE      SCON1
      00000098H.4 SFRSYM    DATA     BIT       REN
      00000090H.4 SFRSYM    DATA     BIT       CAP1_
LX51 LINKER/LOCATER V4.41                                                             12/15/2025  10:37:13  PAGE 20


      00000090H.4 SFRSYM    DATA     BIT       T2_
      000000B0H.7 SFRSYM    DATA     BIT       UDM
      000000C9H   SFRSYM    DATA     BYTE      T2MOD
      000000C8H   SFRSYM    DATA     BYTE      T2CON
      000000B0H.6 SFRSYM    DATA     BIT       UDP
      00000090H.4 SFRSYM    DATA     BIT       SCS
      000000D8H.2 SFRSYM    DATA     BIT       UIF_SUSPEND
      0000008EH   SFRSYM    DATA     WORD      ROM_DATA
      00000084H   SFRSYM    DATA     WORD      ROM_ADDR
      00000090H.7 SFRSYM    DATA     BIT       GPIO_RED
      000000C0H.4 SFRSYM    DATA     BIT       U1REN
      000000B0H   SFRSYM    DATA     BIT       RXD
      000000D8H.4 SFRSYM    DATA     BIT       UIF_FIFO_OV
      000000B0H.1 SFRSYM    DATA     BIT       TXD
      000000EBH   SFRSYM    DATA     BYTE      UEP2_3_MOD
      000000EAH   SFRSYM    DATA     BYTE      UEP4_1_MOD
      000000B0H.2 SFRSYM    DATA     BIT       VBUS1
      00000090H.1 SFRSYM    DATA     BIT       VBUS2
      00000080H   SFRSYM    DATA     BIT       ADC_CHAN0
      00000080H.1 SFRSYM    DATA     BIT       ADC_CHAN1
      000000C6H   SFRSYM    DATA     BYTE      PIN_FUNC
      000000D0H.5 SFRSYM    DATA     BIT       F0
      000000EDH   SFRSYM    DATA     BYTE      UEP0_DMA_H
      000000D0H.1 SFRSYM    DATA     BIT       F1
      000000B0H.1 SFRSYM    DATA     BIT       LED_B
      000000EFH   SFRSYM    DATA     BYTE      UEP1_DMA_H
      000000E5H   SFRSYM    DATA     BYTE      UEP2_DMA_H
      000000C4H   SFRSYM    DATA     WORD      TKEY_DAT
      000000F8H.6 SFRSYM    DATA     BIT       S0_IF_OV
      000000E7H   SFRSYM    DATA     BYTE      UEP3_DMA_H
      0000009AH   SFRSYM    DATA     BYTE      ADC_CFG
      000000ECH   SFRSYM    DATA     BYTE      UEP0_DMA_L
      000000D0H   SFRSYM    DATA     BYTE      PSW
      000000EEH   SFRSYM    DATA     BYTE      UEP1_DMA_L
      00000090H   SFRSYM    DATA     BIT       LED_G
      000000E4H   SFRSYM    DATA     BYTE      UEP2_DMA_L
      000000E6H   SFRSYM    DATA     BYTE      UEP3_DMA_L

      01001800H   BLOCK     CODE     ---       LVL=0
      01001800H   LINE      CODE     ---       #65
      01001800H   LINE      CODE     ---       #66
      01001800H   LINE      CODE     ---       #67
      01001803H   LINE      CODE     ---       #68
      0100180AH   LINE      CODE     ---       #69
      0100180DH   LINE      CODE     ---       #70
      01001810H   LINE      CODE     ---       #71
      01001813H   LINE      CODE     ---       #72
      01001816H   LINE      CODE     ---       #74
      0100181BH   LINE      CODE     ---       #75
      01001820H   LINE      CODE     ---       #77
      01001823H   LINE      CODE     ---       #78
      01001826H   LINE      CODE     ---       #79
      0100182DH   LINE      CODE     ---       #81
      01001834H   LINE      CODE     ---       #83
      0100183BH   LINE      CODE     ---       #84
      0100183EH   LINE      CODE     ---       #85
      01001841H   LINE      CODE     ---       #87
      0100184AH   LINE      CODE     ---       #89
      01001850H   LINE      CODE     ---       #90
      01001853H   LINE      CODE     ---       #91
      0100185BH   LINE      CODE     ---       #98
      0100185DH   LINE      CODE     ---       #100
      01001867H   LINE      CODE     ---       #101
      0100186CH   LINE      CODE     ---       #102
      0100186FH   LINE      CODE     ---       #104
LX51 LINKER/LOCATER V4.41                                                             12/15/2025  10:37:13  PAGE 21


      0100186FH   LINE      CODE     ---       #105
      0100186FH   LINE      CODE     ---       #106
      01001874H   LINE      CODE     ---       #108
      01001877H   LINE      CODE     ---       #109
      01001889H   LINE      CODE     ---       #110
      01001898H   LINE      CODE     ---       #111
      010018A4H   LINE      CODE     ---       #112
      010018A4H   LINE      CODE     ---       #113
      ---         BLOCKEND  ---      ---       LVL=0

      01001000H   BLOCK     CODE     ---       LVL=0
      01001000H   BLOCK     CODE     NEAR LAB  LVL=1
      0200014FH   SYMBOL    XDATA    BYTE      tm_cnt
      02000150H   SYMBOL    XDATA    BYTE      i
      ---         BLOCKEND  ---      ---       LVL=1
      01001000H   LINE      CODE     ---       #128
      01001000H   LINE      CODE     ---       #129
      01001000H   LINE      CODE     ---       #130
      01001005H   LINE      CODE     ---       #134
      0100100BH   LINE      CODE     ---       #135
      01001011H   LINE      CODE     ---       #136
      01001027H   LINE      CODE     ---       #137
      01001029H   LINE      CODE     ---       #139
      01001030H   LINE      CODE     ---       #140
      01001036H   LINE      CODE     ---       #141
      0100104CH   LINE      CODE     ---       #142
      0100104EH   LINE      CODE     ---       #144
      01001055H   LINE      CODE     ---       #146
      0100105BH   LINE      CODE     ---       #147
      01001071H   LINE      CODE     ---       #149
      01001073H   LINE      CODE     ---       #151
      0100107AH   LINE      CODE     ---       #155
      01001122H   LINE      CODE     ---       #157
      01001122H   LINE      CODE     ---       #159
      01001128H   LINE      CODE     ---       #160
      0100112BH   LINE      CODE     ---       #161
      01001135H   LINE      CODE     ---       #162
      0100113BH   LINE      CODE     ---       #163
      0100113BH   LINE      CODE     ---       #165
      01001142H   LINE      CODE     ---       #166
      01001153H   LINE      CODE     ---       #167
      01001192H   LINE      CODE     ---       #169
      01001198H   LINE      CODE     ---       #171
      010011AAH   LINE      CODE     ---       #172
      010011C3H   LINE      CODE     ---       #173
      010011D5H   LINE      CODE     ---       #174
      010011EEH   LINE      CODE     ---       #175
      01001200H   LINE      CODE     ---       #176
      0100121AH   LINE      CODE     ---       #178
      0100121CH   LINE      CODE     ---       #180
      0100121CH   LINE      CODE     ---       #181
      01001224H   LINE      CODE     ---       #182
      01001228H   LINE      CODE     ---       #183
      01001232H   LINE      CODE     ---       #184
      01001237H   LINE      CODE     ---       #185
      01001241H   LINE      CODE     ---       #186
      0100124BH   LINE      CODE     ---       #187
      01001255H   LINE      CODE     ---       #188
      01001255H   LINE      CODE     ---       #190
      01001267H   LINE      CODE     ---       #191
      0100126AH   LINE      CODE     ---       #192
      0100126AH   LINE      CODE     ---       #193
      0100126CH   LINE      CODE     ---       #194
      0100127EH   LINE      CODE     ---       #195
      01001281H   LINE      CODE     ---       #196
LX51 LINKER/LOCATER V4.41                                                             12/15/2025  10:37:13  PAGE 22


      01001281H   LINE      CODE     ---       #197
      01001283H   LINE      CODE     ---       #198
      01001295H   LINE      CODE     ---       #199
      010012A1H   LINE      CODE     ---       #200
      010012A6H   LINE      CODE     ---       #201
      010012A6H   LINE      CODE     ---       #202
      010012A8H   LINE      CODE     ---       #203
      010012A8H   LINE      CODE     ---       #204
      010012ADH   LINE      CODE     ---       #205
      010012B2H   LINE      CODE     ---       #206
      010012B2H   LINE      CODE     ---       #207
      010012B4H   LINE      CODE     ---       #208
      010012BEH   LINE      CODE     ---       #209
      010012BEH   LINE      CODE     ---       #210
      010012BEH   LINE      CODE     ---       #211
      010012C4H   LINE      CODE     ---       #212
      010012C7H   LINE      CODE     ---       #213
      ---         BLOCKEND  ---      ---       LVL=0

      ---         MODULE    ---      ---       TIMER0
      0200016FH   PUBLIC    XDATA    BYTE      Effect_Time4
      0000000CH   PUBLIC    IDATA    WORD      Time_Capture
      0000000BH   PUBLIC    IDATA    BYTE      Flag_Capture
      0200016EH   PUBLIC    XDATA    BYTE      u8TL1_Tmp
      0200016DH   PUBLIC    XDATA    BYTE      u8TL0_Tmp
      0200016CH   PUBLIC    XDATA    BYTE      u8TH1_Tmp
      0200016BH   PUBLIC    XDATA    BYTE      u8TH0_Tmp
      01000EF6H   PUBLIC    CODE     ---       Timer2_Capture
      01001CACH   PUBLIC    CODE     ---       Timer1_Update
      0100199FH   PUBLIC    CODE     ---       Timer0_Update
      01001D2AH   PUBLIC    CODE     ---       Timer2_InputCapture_Init
      01001B67H   PUBLIC    CODE     ---       _Timer1_Init
      01001BB0H   PUBLIC    CODE     ---       _Timer0_Init
      000000D8H.3 SFRSYM    DATA     BIT       UIF_HST_SOF
      000000B0H.4 SFRSYM    DATA     BIT       RXD1_
      000000D8H   SFRSYM    DATA     BIT       UIF_DETECT
      00000090H   SFRSYM    DATA     BYTE      P1
      000000E2H   SFRSYM    DATA     BYTE      USB_CTRL
      000000B0H.2 SFRSYM    DATA     BIT       TXD1_
      000000A0H   SFRSYM    DATA     BYTE      P2
      000000B0H   SFRSYM    DATA     BYTE      P3
      00000090H   SFRSYM    DATA     BIT       GPIO_GREEN
      000000B0H.4 SFRSYM    DATA     BIT       T0
      000000D0H.6 SFRSYM    DATA     BIT       AC
      000000FBH   SFRSYM    DATA     BYTE      SPI0_CK_SE
      000000B0H.5 SFRSYM    DATA     BIT       T1
      000000B0H   SFRSYM    DATA     BIT       PWM1_
      00000090H   SFRSYM    DATA     BIT       CAP1
      00000090H   SFRSYM    DATA     BIT       T2
      00000086H   SFRSYM    DATA     BYTE      ROM_CTRL
      000000A8H.6 SFRSYM    DATA     BIT       E_DIS
      000000A8H.7 SFRSYM    DATA     BIT       EA
      000000F8H.3 SFRSYM    DATA     BIT       S0_FREE
      000000B0H.1 SFRSYM    DATA     BIT       PWM2_
      00000090H.1 SFRSYM    DATA     BIT       CAP2
      00000090H.7 SFRSYM    DATA     BIT       LED_R
      000000F8H.4 SFRSYM    DATA     BIT       S0_IF_BYTE
      00000090H.1 SFRSYM    DATA     BIT       AIN0
      00000090H.4 SFRSYM    DATA     BIT       AIN1
      000000D8H   SFRSYM    DATA     BIT       UIF_BUS_RST
      000000F8H.7 SFRSYM    DATA     BIT       S0_FST_ACT
      00000090H.5 SFRSYM    DATA     BIT       AIN2
      0000009DH   SFRSYM    DATA     BYTE      PWM_CTRL
      000000B0H.2 SFRSYM    DATA     BIT       AIN3
      000000E8H   SFRSYM    DATA     BIT       IE_SPI0
LX51 LINKER/LOCATER V4.41                                                             12/15/2025  10:37:13  PAGE 23


      000000E8H   SFRSYM    DATA     BYTE      IE_EX
      000000FEH   SFRSYM    DATA     BYTE      RESET_KEEP
      000000D8H.7 SFRSYM    DATA     BIT       U_IS_NAK
      000000CEH   SFRSYM    DATA     WORD      T2CAP1
      00000090H.4 SFRSYM    DATA     BIT       UCC1
      00000090H.5 SFRSYM    DATA     BIT       UCC2
      000000A8H   SFRSYM    DATA     BYTE      IE
      000000DDH   SFRSYM    DATA     BYTE      UEP0_T_LEN
      000000E3H   SFRSYM    DATA     BYTE      USB_DEV_AD
      000000D3H   SFRSYM    DATA     BYTE      UEP1_T_LEN
      000000FCH   SFRSYM    DATA     BYTE      SPI0_SETUP
      000000D5H   SFRSYM    DATA     BYTE      UEP2_T_LEN
      000000CCH   SFRSYM    DATA     WORD      T2COUNT
      000000D7H   SFRSYM    DATA     BYTE      UEP3_T_LEN
      000000A2H   SFRSYM    DATA     BYTE      XBUS_AUX
      0000008FH   SFRSYM    DATA     BYTE      ROM_DATA_H
      000000B0H.3 SFRSYM    DATA     BIT       BUT_DON_DA
      000000DFH   SFRSYM    DATA     BYTE      UEP4_T_LEN
      00000085H   SFRSYM    DATA     BYTE      ROM_ADDR_H
      000000B8H.7 SFRSYM    DATA     BIT       PH_FLAG
      000000C8H.6 SFRSYM    DATA     BIT       EXF2
      0000008EH   SFRSYM    DATA     BYTE      ROM_DATA_L
      000000E9H   SFRSYM    DATA     BYTE      IP_EX
      00000084H   SFRSYM    DATA     BYTE      ROM_ADDR_L
      000000B8H.6 SFRSYM    DATA     BIT       PL_FLAG
      000000A8H.4 SFRSYM    DATA     BIT       ES
      000000F9H   SFRSYM    DATA     BYTE      SPI0_DATA
      000000B8H   SFRSYM    DATA     BYTE      IP
      000000D8H.5 SFRSYM    DATA     BIT       U_SIE_FREE
      000000D8H.6 SFRSYM    DATA     BIT       U_TOG_OK
      00000098H   SFRSYM    DATA     BIT       RI
      000000B0H.2 SFRSYM    DATA     BIT       INT0
      00000090H   SFRSYM    DATA     BIT       TIN0
      000000D0H.7 SFRSYM    DATA     BIT       CY
      00000098H.1 SFRSYM    DATA     BIT       TI
      000000B0H.3 SFRSYM    DATA     BIT       INT1
      00000090H.1 SFRSYM    DATA     BIT       TIN1
      00000090H.4 SFRSYM    DATA     BIT       TIN2
      000000FFH   SFRSYM    DATA     BYTE      WDOG_COUNT
      00000090H.5 SFRSYM    DATA     BIT       TIN3
      000000C7H   SFRSYM    DATA     BYTE      GPIO_IE
      000000E8H.6 SFRSYM    DATA     BIT       IE_GPIO
      000000B9H   SFRSYM    DATA     BYTE      CLOCK_CFG
      00000090H.6 SFRSYM    DATA     BIT       TIN4
      00000090H.6 SFRSYM    DATA     BIT       RXD1
      00000090H.7 SFRSYM    DATA     BIT       TIN5
      000000E8H.7 SFRSYM    DATA     BIT       IE_WDOG
      000000C2H   SFRSYM    DATA     BYTE      SBAUD1
      000000C0H   SFRSYM    DATA     BIT       U1RI
      0000009CH   SFRSYM    DATA     BYTE      PWM_DATA1
      000000CBH   SFRSYM    DATA     BYTE      RCAP2H
      00000090H.7 SFRSYM    DATA     BIT       TXD1
      0000009BH   SFRSYM    DATA     BYTE      PWM_DATA2
      000000B8H.4 SFRSYM    DATA     BIT       PS
      00000081H   SFRSYM    DATA     BYTE      SP
      000000C0H.1 SFRSYM    DATA     BIT       U1TI
      00000090H.1 SFRSYM    DATA     BIT       T2EX
      000000D8H   SFRSYM    DATA     BYTE      USB_INT_FG
      00000091H   SFRSYM    DATA     BYTE      USB_C_CTRL
      000000D0H.2 SFRSYM    DATA     BIT       OV
      000000CAH   SFRSYM    DATA     BYTE      RCAP2L
      00000090H.5 SFRSYM    DATA     BIT       PWM1
      000000B0H.4 SFRSYM    DATA     BIT       PWM2
      000000C8H.1 SFRSYM    DATA     BIT       C_T2
      000000B0H.5 SFRSYM    DATA     BIT       LED7_DATA_A
LX51 LINKER/LOCATER V4.41                                                             12/15/2025  10:37:13  PAGE 24


      00000090H.5 SFRSYM    DATA     BIT       LED7_DATA_B
      000000E1H   SFRSYM    DATA     BYTE      USB_INT_EN
      00000090H.6 SFRSYM    DATA     BIT       LED7_DATA_C
      00000090H.4 SFRSYM    DATA     BIT       LED7_DATA_D
      000000C8H.5 SFRSYM    DATA     BIT       RCLK
      000000E8H.1 SFRSYM    DATA     BIT       IE_TKEY
      000000B0H.2 SFRSYM    DATA     BIT       LED7_DATA_E
      000000D8H.1 SFRSYM    DATA     BIT       UIF_TRANSFER
      00000090H.3 SFRSYM    DATA     BIT       LED7_DATA_F
      000000C8H.4 SFRSYM    DATA     BIT       TCLK
      00000090H.2 SFRSYM    DATA     BIT       LED7_DATA_G
      00000080H.7 SFRSYM    DATA     BIT       CMPO
      00000099H   SFRSYM    DATA     BYTE      SBUF
      00000087H   SFRSYM    DATA     BYTE      PCON
      000000DCH   SFRSYM    DATA     BYTE      UEP0_CTRL
      000000D2H   SFRSYM    DATA     BYTE      UEP1_CTRL
      000000D4H   SFRSYM    DATA     BYTE      UEP2_CTRL
      000000FAH   SFRSYM    DATA     BYTE      SPI0_CTRL
      00000098H   SFRSYM    DATA     BYTE      SCON
      000000D6H   SFRSYM    DATA     BYTE      UEP3_CTRL
      00000089H   SFRSYM    DATA     BYTE      TMOD
      00000088H   SFRSYM    DATA     BYTE      TCON
      00000092H   SFRSYM    DATA     BYTE      P1_MOD_OC
      000000DEH   SFRSYM    DATA     BYTE      UEP4_CTRL
      000000DBH   SFRSYM    DATA     BYTE      USB_RX_LEN
      00000096H   SFRSYM    DATA     BYTE      P3_MOD_OC
      000000E8H.3 SFRSYM    DATA     BIT       IE_ADC
      00000080H.5 SFRSYM    DATA     BIT       ADC_IF
      00000080H.4 SFRSYM    DATA     BIT       ADC_START
      00000090H.5 SFRSYM    DATA     BIT       MOSI
      00000090H.6 SFRSYM    DATA     BIT       MISO
      000000B0H.1 SFRSYM    DATA     BIT       GPIO_BLUE
      000000C0H.5 SFRSYM    DATA     BIT       U1SMOD
      000000F8H   SFRSYM    DATA     BIT       S0_R_FIFO
      000000F8H   SFRSYM    DATA     BYTE      SPI0_STAT
      000000E8H.5 SFRSYM    DATA     BIT       IE_PWMX
      000000DAH   SFRSYM    DATA     BYTE      USB_MIS_ST
      000000F8H.2 SFRSYM    DATA     BIT       S0_T_FIFO
      00000088H.1 SFRSYM    DATA     BIT       IE0
      000000B0H   SFRSYM    DATA     BIT       BUT_SPEED
      000000D9H   SFRSYM    DATA     BYTE      USB_INT_ST
      00000088H.3 SFRSYM    DATA     BIT       IE1
      000000A9H   SFRSYM    DATA     BYTE      WAKE_CTRL
      000000C5H   SFRSYM    DATA     BYTE      TKEY_DATH
      000000F0H   SFRSYM    DATA     BYTE      B
      0000009FH   SFRSYM    DATA     BYTE      ADC_DATA
      000000C8H   SFRSYM    DATA     BIT       CP_RL2
      000000C4H   SFRSYM    DATA     BYTE      TKEY_DATL
      00000093H   SFRSYM    DATA     BYTE      P1_DIR_PU
      000000E0H   SFRSYM    DATA     BYTE      ACC
      00000097H   SFRSYM    DATA     BYTE      P3_DIR_PU
      000000A8H.1 SFRSYM    DATA     BIT       ET0
      00000088H.5 SFRSYM    DATA     BIT       TF0
      000000A8H.3 SFRSYM    DATA     BIT       ET1
      00000088H.7 SFRSYM    DATA     BIT       TF1
      000000A8H.5 SFRSYM    DATA     BIT       ET2
      000000D1H   SFRSYM    DATA     BYTE      UDEV_CTRL
      000000C8H.7 SFRSYM    DATA     BIT       CAP1F
      000000C8H.7 SFRSYM    DATA     BIT       TF2
      00000098H.2 SFRSYM    DATA     BIT       RB8
      0000008CH   SFRSYM    DATA     BYTE      TH0
      0000008DH   SFRSYM    DATA     BYTE      TH1
      00000088H   SFRSYM    DATA     BIT       IT0
      000000A8H   SFRSYM    DATA     BIT       EX0
      000000ECH   SFRSYM    DATA     WORD      UEP0_DMA
LX51 LINKER/LOCATER V4.41                                                             12/15/2025  10:37:13  PAGE 25


      000000CDH   SFRSYM    DATA     BYTE      TH2
      00000098H.3 SFRSYM    DATA     BIT       TB8
      00000088H.2 SFRSYM    DATA     BIT       IT1
      00000090H.2 SFRSYM    DATA     BIT       RXD_
      000000A8H.2 SFRSYM    DATA     BIT       EX1
      000000B0H.4 SFRSYM    DATA     BIT       BUT_MUSIC
      000000EEH   SFRSYM    DATA     WORD      UEP1_DMA
      000000D0H   SFRSYM    DATA     BIT       P
      000000E4H   SFRSYM    DATA     WORD      UEP2_DMA
      00000080H.6 SFRSYM    DATA     BIT       CMP_IF
      00000098H.7 SFRSYM    DATA     BIT       SM0
      0000008AH   SFRSYM    DATA     BYTE      TL0
      00000090H.3 SFRSYM    DATA     BIT       TXD_
      000000E6H   SFRSYM    DATA     WORD      UEP3_DMA
      00000098H.6 SFRSYM    DATA     BIT       SM1
      0000008BH   SFRSYM    DATA     BYTE      TL1
      000000CCH   SFRSYM    DATA     BYTE      TL2
      00000098H.5 SFRSYM    DATA     BIT       SM2
      000000C0H.2 SFRSYM    DATA     BIT       U1RB8
      000000B8H.1 SFRSYM    DATA     BIT       PT0
      00000090H.4 SFRSYM    DATA     BIT       LED
      000000C3H   SFRSYM    DATA     BYTE      TKEY_CTRL
      000000C0H.3 SFRSYM    DATA     BIT       U1TB8
      000000CFH   SFRSYM    DATA     BYTE      T2CAP1H
      000000B8H.3 SFRSYM    DATA     BIT       PT1
      000000D0H.3 SFRSYM    DATA     BIT       RS0
      00000088H.4 SFRSYM    DATA     BIT       TR0
      000000B8H.5 SFRSYM    DATA     BIT       PT2
      000000D0H.4 SFRSYM    DATA     BIT       RS1
      000000C0H.7 SFRSYM    DATA     BIT       U1SM0
      00000088H.6 SFRSYM    DATA     BIT       TR1
      000000C8H.2 SFRSYM    DATA     BIT       TR2
      000000B8H   SFRSYM    DATA     BIT       PX0
      000000CEH   SFRSYM    DATA     BYTE      T2CAP1L
      000000CAH   SFRSYM    DATA     WORD      RCAP2
      000000E8H.2 SFRSYM    DATA     BIT       IE_USB
      000000B8H.2 SFRSYM    DATA     BIT       PX1
      00000080H.3 SFRSYM    DATA     BIT       CMP_CHAN
      0000009EH   SFRSYM    DATA     BYTE      PWM_CK_SE
      00000083H   SFRSYM    DATA     BYTE      DPH
      000000F8H.5 SFRSYM    DATA     BIT       S0_IF_FIRST
      000000E8H.4 SFRSYM    DATA     BIT       IE_UART1
      00000080H   SFRSYM    DATA     BYTE      ADC_CTRL
      00000082H   SFRSYM    DATA     BYTE      DPL
      00000090H.7 SFRSYM    DATA     BIT       SCK
      000000A1H   SFRSYM    DATA     BYTE      SAFE_MOD
      000000C1H   SFRSYM    DATA     BYTE      SBUF1
      000000C8H.3 SFRSYM    DATA     BIT       EXEN2
      000000B1H   SFRSYM    DATA     BYTE      GLOBAL_CFG
      000000C0H   SFRSYM    DATA     BYTE      SCON1
      00000098H.4 SFRSYM    DATA     BIT       REN
      00000090H.4 SFRSYM    DATA     BIT       CAP1_
      00000090H.4 SFRSYM    DATA     BIT       T2_
      000000B0H.7 SFRSYM    DATA     BIT       UDM
      000000C9H   SFRSYM    DATA     BYTE      T2MOD
      000000C8H   SFRSYM    DATA     BYTE      T2CON
      000000B0H.6 SFRSYM    DATA     BIT       UDP
      00000090H.4 SFRSYM    DATA     BIT       SCS
      000000D8H.2 SFRSYM    DATA     BIT       UIF_SUSPEND
      0000008EH   SFRSYM    DATA     WORD      ROM_DATA
      00000084H   SFRSYM    DATA     WORD      ROM_ADDR
      00000090H.7 SFRSYM    DATA     BIT       GPIO_RED
      000000C0H.4 SFRSYM    DATA     BIT       U1REN
      000000B0H   SFRSYM    DATA     BIT       RXD
      000000D8H.4 SFRSYM    DATA     BIT       UIF_FIFO_OV
LX51 LINKER/LOCATER V4.41                                                             12/15/2025  10:37:13  PAGE 26


      000000B0H.1 SFRSYM    DATA     BIT       TXD
      000000EBH   SFRSYM    DATA     BYTE      UEP2_3_MOD
      000000EAH   SFRSYM    DATA     BYTE      UEP4_1_MOD
      000000B0H.2 SFRSYM    DATA     BIT       VBUS1
      00000090H.1 SFRSYM    DATA     BIT       VBUS2
      00000080H   SFRSYM    DATA     BIT       ADC_CHAN0
      00000080H.1 SFRSYM    DATA     BIT       ADC_CHAN1
      000000C6H   SFRSYM    DATA     BYTE      PIN_FUNC
      000000D0H.5 SFRSYM    DATA     BIT       F0
      000000EDH   SFRSYM    DATA     BYTE      UEP0_DMA_H
      000000D0H.1 SFRSYM    DATA     BIT       F1
      000000B0H.1 SFRSYM    DATA     BIT       LED_B
      000000EFH   SFRSYM    DATA     BYTE      UEP1_DMA_H
      000000E5H   SFRSYM    DATA     BYTE      UEP2_DMA_H
      000000C4H   SFRSYM    DATA     WORD      TKEY_DAT
      000000F8H.6 SFRSYM    DATA     BIT       S0_IF_OV
      000000E7H   SFRSYM    DATA     BYTE      UEP3_DMA_H
      0000009AH   SFRSYM    DATA     BYTE      ADC_CFG
      000000ECH   SFRSYM    DATA     BYTE      UEP0_DMA_L
      000000D0H   SFRSYM    DATA     BYTE      PSW
      000000EEH   SFRSYM    DATA     BYTE      UEP1_DMA_L
      00000090H   SFRSYM    DATA     BIT       LED_G
      000000E4H   SFRSYM    DATA     BYTE      UEP2_DMA_L
      000000E6H   SFRSYM    DATA     BYTE      UEP3_DMA_L
      00000009H   SYMBOL    IDATA    BYTE      CurrentDuty
      0000000AH   SYMBOL    IDATA    BYTE      IndexBit
      0000000EH   SYMBOL    IDATA    BYTE      CurrentCount

      01001BB0H   BLOCK     CODE     ---       LVL=0
      0200014FH   SYMBOL    XDATA    WORD      Counter
      01001BB0H   LINE      CODE     ---       #37
      01001BB8H   LINE      CODE     ---       #38
      01001BB8H   LINE      CODE     ---       #39
      01001BBBH   LINE      CODE     ---       #40
      01001BBEH   LINE      CODE     ---       #41
      01001BC1H   LINE      CODE     ---       #42
      01001BE3H   LINE      CODE     ---       #43
      01001BECH   LINE      CODE     ---       #44
      01001BF2H   LINE      CODE     ---       #45
      01001BF4H   LINE      CODE     ---       #46
      01001BF6H   LINE      CODE     ---       #48
      ---         BLOCKEND  ---      ---       LVL=0

      01001B67H   BLOCK     CODE     ---       LVL=0
      0200014FH   SYMBOL    XDATA    WORD      Counter
      01001B67H   LINE      CODE     ---       #49
      01001B6FH   LINE      CODE     ---       #50
      01001B6FH   LINE      CODE     ---       #51
      01001B72H   LINE      CODE     ---       #52
      01001B75H   LINE      CODE     ---       #53
      01001B78H   LINE      CODE     ---       #54
      01001B9AH   LINE      CODE     ---       #55
      01001BA3H   LINE      CODE     ---       #56
      01001BA9H   LINE      CODE     ---       #57
      01001BABH   LINE      CODE     ---       #58
      01001BADH   LINE      CODE     ---       #59
      01001BAFH   LINE      CODE     ---       #60
      ---         BLOCKEND  ---      ---       LVL=0

      01001D2AH   BLOCK     CODE     ---       LVL=0
      01001D2AH   LINE      CODE     ---       #71
      01001D2AH   LINE      CODE     ---       #72
      01001D2AH   LINE      CODE     ---       #73
      01001D2CH   LINE      CODE     ---       #74
      01001D2EH   LINE      CODE     ---       #75
LX51 LINKER/LOCATER V4.41                                                             12/15/2025  10:37:13  PAGE 27


      01001D30H   LINE      CODE     ---       #76
      01001D33H   LINE      CODE     ---       #78
      01001D36H   LINE      CODE     ---       #79
      01001D39H   LINE      CODE     ---       #80
      01001D3BH   LINE      CODE     ---       #81
      01001D3DH   LINE      CODE     ---       #82
      01001D40H   LINE      CODE     ---       #83
      01001D42H   LINE      CODE     ---       #84
      01001D45H   LINE      CODE     ---       #85
      01001D47H   LINE      CODE     ---       #87
      ---         BLOCKEND  ---      ---       LVL=0

      0100199FH   BLOCK     CODE     ---       LVL=0
      0100199FH   LINE      CODE     ---       #88
      010019ADH   LINE      CODE     ---       #90
      010019B3H   LINE      CODE     ---       #91
      010019B9H   LINE      CODE     ---       #92
      010019C2H   LINE      CODE     ---       #93
      010019C4H   LINE      CODE     ---       #94
      010019D6H   LINE      CODE     ---       #95
      010019E4H   LINE      CODE     ---       #96
      010019F4H   LINE      CODE     ---       #97
      010019FAH   LINE      CODE     ---       #98
      ---         BLOCKEND  ---      ---       LVL=0

      01001CACH   BLOCK     CODE     ---       LVL=0
      01001CACH   LINE      CODE     ---       #99
      01001CB7H   LINE      CODE     ---       #101
      01001CBDH   LINE      CODE     ---       #102
      01001CC3H   LINE      CODE     ---       #103
      01001CCCH   LINE      CODE     ---       #104
      01001CCCH   LINE      CODE     ---       #105
      01001CD0H   LINE      CODE     ---       #106
      01001CD4H   LINE      CODE     ---       #107
      01001CD4H   LINE      CODE     ---       #108
      ---         BLOCKEND  ---      ---       LVL=0

      01000EF6H   BLOCK     CODE     ---       LVL=0
      01000EF6H   LINE      CODE     ---       #109
      01000F03H   LINE      CODE     ---       #111
      01000F0BH   LINE      CODE     ---       #112
      01000F0BH   LINE      CODE     ---       #113
      01000F0DH   LINE      CODE     ---       #114
      01000F0FH   LINE      CODE     ---       #115
      01000F12H   LINE      CODE     ---       #116
      01000F14H   LINE      CODE     ---       #117
      01000F16H   LINE      CODE     ---       #118
      01000F18H   LINE      CODE     ---       #119
      01000F1AH   LINE      CODE     ---       #120
      01000F1CH   LINE      CODE     ---       #121
      01000F25H   LINE      CODE     ---       #122
      01000F25H   LINE      CODE     ---       #123
      01000F27H   LINE      CODE     ---       #124
      01000F2AH   LINE      CODE     ---       #125
      01000F2CH   LINE      CODE     ---       #126
      01000F34H   LINE      CODE     ---       #127
      01000F3EH   LINE      CODE     ---       #136
      01000F4CH   LINE      CODE     ---       #137
      01000F4CH   LINE      CODE     ---       #138
      01000F5DH   LINE      CODE     ---       #139
      01000F66H   LINE      CODE     ---       #140
      01000F77H   LINE      CODE     ---       #141
      01000F80H   LINE      CODE     ---       #142
      01000F84H   LINE      CODE     ---       #143
      01000F86H   LINE      CODE     ---       #145
LX51 LINKER/LOCATER V4.41                                                             12/15/2025  10:37:13  PAGE 28


      01000F86H   LINE      CODE     ---       #146
      01000F90H   LINE      CODE     ---       #147
      01000F94H   LINE      CODE     ---       #148
      01000F94H   LINE      CODE     ---       #149
      01000F96H   LINE      CODE     ---       #150
      01000F96H   LINE      CODE     ---       #151
      01000F99H   LINE      CODE     ---       #152
      01000F99H   LINE      CODE     ---       #153
      01000F9BH   LINE      CODE     ---       #154
      01000F9BH   LINE      CODE     ---       #155
      ---         BLOCKEND  ---      ---       LVL=0

      ---         MODULE    ---      ---       EFFECT
      0200014CH   PUBLIC    XDATA    BYTE      Delay_Music_MONO
      02000130H   PUBLIC    XDATA    ---       ColorTable
      0200012AH   PUBLIC    XDATA    BYTE      LastMode
      02000126H   PUBLIC    XDATA    ---       RedGreenBlue
      0000000FH   PUBLIC    IDATA    BYTE      But_Count
      01000800H   PUBLIC    CODE     ---       _Program_Effect
      01001924H   PUBLIC    CODE     ---       _Program_AutoEffect
      02000170H   PUBLIC    XDATA    BYTE      ?_RGB_ProcessKey?BYTE
      0100004EH   PUBLIC    CODE     ---       _RGB_ProcessKey
      010012C8H   PUBLIC    CODE     ---       _Check_Button
      01001A09H   PUBLIC    CODE     ---       KEY_GetKey
      01001B1BH   PUBLIC    CODE     ---       _SetProcessAutoEffect
      01001DB1H   PUBLIC    CODE     ---       RGB_OffDisplay
      01000006H   PUBLIC    CODE     ---       RGB_OnDisplay
      01001D78H   PUBLIC    CODE     ---       _Display_LED_7
      01001C73H   PUBLIC    CODE     ---       _LED7_OutData
      0100179EH   PUBLIC    CODE     ---       _SetColor
      0200014FH   PUBLIC    XDATA    BYTE      ?_RGB_SetColor?BYTE
      01000FB6H   PUBLIC    CODE     ---       _RGB_SetColor
      01001AD2H   PUBLIC    CODE     ---       _RGB_SetBright
      010018A6H   PUBLIC    CODE     ---       _RGB_SetSpeed
      01001CDDH   PUBLIC    CODE     ---       _RGB_SetModeSpeed
      01001C39H   PUBLIC    CODE     ---       _Audio_Convert
      0100001EH   PUBLIC    CODE     ---       RGB_PinInit
      000000D8H.3 SFRSYM    DATA     BIT       UIF_HST_SOF
      000000B0H.4 SFRSYM    DATA     BIT       RXD1_
      000000D8H   SFRSYM    DATA     BIT       UIF_DETECT
      00000090H   SFRSYM    DATA     BYTE      P1
      000000E2H   SFRSYM    DATA     BYTE      USB_CTRL
      000000B0H.2 SFRSYM    DATA     BIT       TXD1_
      000000A0H   SFRSYM    DATA     BYTE      P2
      000000B0H   SFRSYM    DATA     BYTE      P3
      00000090H   SFRSYM    DATA     BIT       GPIO_GREEN
      000000B0H.4 SFRSYM    DATA     BIT       T0
      000000D0H.6 SFRSYM    DATA     BIT       AC
      000000FBH   SFRSYM    DATA     BYTE      SPI0_CK_SE
      000000B0H.5 SFRSYM    DATA     BIT       T1
      000000B0H   SFRSYM    DATA     BIT       PWM1_
      00000090H   SFRSYM    DATA     BIT       CAP1
      00000090H   SFRSYM    DATA     BIT       T2
      00000086H   SFRSYM    DATA     BYTE      ROM_CTRL
      000000A8H.6 SFRSYM    DATA     BIT       E_DIS
      000000A8H.7 SFRSYM    DATA     BIT       EA
      000000F8H.3 SFRSYM    DATA     BIT       S0_FREE
      000000B0H.1 SFRSYM    DATA     BIT       PWM2_
      00000090H.1 SFRSYM    DATA     BIT       CAP2
      000000F8H.4 SFRSYM    DATA     BIT       S0_IF_BYTE
      00000090H.1 SFRSYM    DATA     BIT       AIN0
      00000090H.4 SFRSYM    DATA     BIT       AIN1
      000000D8H   SFRSYM    DATA     BIT       UIF_BUS_RST
      000000F8H.7 SFRSYM    DATA     BIT       S0_FST_ACT
      00000090H.5 SFRSYM    DATA     BIT       AIN2
LX51 LINKER/LOCATER V4.41                                                             12/15/2025  10:37:13  PAGE 29


      0000009DH   SFRSYM    DATA     BYTE      PWM_CTRL
      000000B0H.2 SFRSYM    DATA     BIT       AIN3
      000000E8H   SFRSYM    DATA     BIT       IE_SPI0
      000000E8H   SFRSYM    DATA     BYTE      IE_EX
      000000FEH   SFRSYM    DATA     BYTE      RESET_KEEP
      000000D8H.7 SFRSYM    DATA     BIT       U_IS_NAK
      000000CEH   SFRSYM    DATA     WORD      T2CAP1
      00000090H.4 SFRSYM    DATA     BIT       UCC1
      00000090H.5 SFRSYM    DATA     BIT       UCC2
      000000A8H   SFRSYM    DATA     BYTE      IE
      000000DDH   SFRSYM    DATA     BYTE      UEP0_T_LEN
      000000E3H   SFRSYM    DATA     BYTE      USB_DEV_AD
      000000D3H   SFRSYM    DATA     BYTE      UEP1_T_LEN
      000000FCH   SFRSYM    DATA     BYTE      SPI0_SETUP
      000000D5H   SFRSYM    DATA     BYTE      UEP2_T_LEN
      000000CCH   SFRSYM    DATA     WORD      T2COUNT
      000000D7H   SFRSYM    DATA     BYTE      UEP3_T_LEN
      000000A2H   SFRSYM    DATA     BYTE      XBUS_AUX
      0000008FH   SFRSYM    DATA     BYTE      ROM_DATA_H
      000000B0H.3 SFRSYM    DATA     BIT       BUT_DON_DA
      000000DFH   SFRSYM    DATA     BYTE      UEP4_T_LEN
      00000085H   SFRSYM    DATA     BYTE      ROM_ADDR_H
      000000B8H.7 SFRSYM    DATA     BIT       PH_FLAG
      000000C8H.6 SFRSYM    DATA     BIT       EXF2
      0000008EH   SFRSYM    DATA     BYTE      ROM_DATA_L
      000000E9H   SFRSYM    DATA     BYTE      IP_EX
      00000084H   SFRSYM    DATA     BYTE      ROM_ADDR_L
      000000B8H.6 SFRSYM    DATA     BIT       PL_FLAG
      000000A8H.4 SFRSYM    DATA     BIT       ES
      000000F9H   SFRSYM    DATA     BYTE      SPI0_DATA
      000000B8H   SFRSYM    DATA     BYTE      IP
      000000D8H.5 SFRSYM    DATA     BIT       U_SIE_FREE
      000000D8H.6 SFRSYM    DATA     BIT       U_TOG_OK
      00000098H   SFRSYM    DATA     BIT       RI
      000000B0H.2 SFRSYM    DATA     BIT       INT0
      00000090H   SFRSYM    DATA     BIT       TIN0
      000000D0H.7 SFRSYM    DATA     BIT       CY
      00000098H.1 SFRSYM    DATA     BIT       TI
      000000B0H.3 SFRSYM    DATA     BIT       INT1
      00000090H.1 SFRSYM    DATA     BIT       TIN1
      00000090H.4 SFRSYM    DATA     BIT       TIN2
      000000FFH   SFRSYM    DATA     BYTE      WDOG_COUNT
      00000090H.5 SFRSYM    DATA     BIT       TIN3
      000000C7H   SFRSYM    DATA     BYTE      GPIO_IE
      000000E8H.6 SFRSYM    DATA     BIT       IE_GPIO
      000000B9H   SFRSYM    DATA     BYTE      CLOCK_CFG
      00000090H.6 SFRSYM    DATA     BIT       TIN4
      00000090H.6 SFRSYM    DATA     BIT       RXD1
      00000090H.7 SFRSYM    DATA     BIT       TIN5
      000000E8H.7 SFRSYM    DATA     BIT       IE_WDOG
      000000C2H   SFRSYM    DATA     BYTE      SBAUD1
      000000C0H   SFRSYM    DATA     BIT       U1RI
      0000009CH   SFRSYM    DATA     BYTE      PWM_DATA1
      000000CBH   SFRSYM    DATA     BYTE      RCAP2H
      00000090H.7 SFRSYM    DATA     BIT       TXD1
      0000009BH   SFRSYM    DATA     BYTE      PWM_DATA2
      000000B8H.4 SFRSYM    DATA     BIT       PS
      00000081H   SFRSYM    DATA     BYTE      SP
      000000C0H.1 SFRSYM    DATA     BIT       U1TI
      00000090H.1 SFRSYM    DATA     BIT       T2EX
      000000D8H   SFRSYM    DATA     BYTE      USB_INT_FG
      00000091H   SFRSYM    DATA     BYTE      USB_C_CTRL
      000000D0H.2 SFRSYM    DATA     BIT       OV
      000000CAH   SFRSYM    DATA     BYTE      RCAP2L
      00000090H.5 SFRSYM    DATA     BIT       PWM1
LX51 LINKER/LOCATER V4.41                                                             12/15/2025  10:37:13  PAGE 30


      000000B0H.4 SFRSYM    DATA     BIT       PWM2
      000000C8H.1 SFRSYM    DATA     BIT       C_T2
      000000B0H.5 SFRSYM    DATA     BIT       LED7_DATA_A
      00000090H.5 SFRSYM    DATA     BIT       LED7_DATA_B
      000000E1H   SFRSYM    DATA     BYTE      USB_INT_EN
      00000090H.6 SFRSYM    DATA     BIT       LED7_DATA_C
      00000090H.4 SFRSYM    DATA     BIT       LED7_DATA_D
      000000C8H.5 SFRSYM    DATA     BIT       RCLK
      000000E8H.1 SFRSYM    DATA     BIT       IE_TKEY
      000000B0H.2 SFRSYM    DATA     BIT       LED7_DATA_E
      000000D8H.1 SFRSYM    DATA     BIT       UIF_TRANSFER
      00000090H.3 SFRSYM    DATA     BIT       LED7_DATA_F
      000000C8H.4 SFRSYM    DATA     BIT       TCLK
      00000090H.2 SFRSYM    DATA     BIT       LED7_DATA_G
      00000080H.7 SFRSYM    DATA     BIT       CMPO
      00000099H   SFRSYM    DATA     BYTE      SBUF
      00000087H   SFRSYM    DATA     BYTE      PCON
      000000DCH   SFRSYM    DATA     BYTE      UEP0_CTRL
      000000D2H   SFRSYM    DATA     BYTE      UEP1_CTRL
      000000D4H   SFRSYM    DATA     BYTE      UEP2_CTRL
      000000FAH   SFRSYM    DATA     BYTE      SPI0_CTRL
      00000098H   SFRSYM    DATA     BYTE      SCON
      000000D6H   SFRSYM    DATA     BYTE      UEP3_CTRL
      00000089H   SFRSYM    DATA     BYTE      TMOD
      00000088H   SFRSYM    DATA     BYTE      TCON
      00000092H   SFRSYM    DATA     BYTE      P1_MOD_OC
      000000DEH   SFRSYM    DATA     BYTE      UEP4_CTRL
      000000DBH   SFRSYM    DATA     BYTE      USB_RX_LEN
      00000096H   SFRSYM    DATA     BYTE      P3_MOD_OC
      000000E8H.3 SFRSYM    DATA     BIT       IE_ADC
      00000080H.5 SFRSYM    DATA     BIT       ADC_IF
      00000080H.4 SFRSYM    DATA     BIT       ADC_START
      00000090H.5 SFRSYM    DATA     BIT       MOSI
      00000090H.6 SFRSYM    DATA     BIT       MISO
      000000B0H.1 SFRSYM    DATA     BIT       GPIO_BLUE
      000000C0H.5 SFRSYM    DATA     BIT       U1SMOD
      000000F8H   SFRSYM    DATA     BIT       S0_R_FIFO
      000000F8H   SFRSYM    DATA     BYTE      SPI0_STAT
      000000E8H.5 SFRSYM    DATA     BIT       IE_PWMX
      000000DAH   SFRSYM    DATA     BYTE      USB_MIS_ST
      000000F8H.2 SFRSYM    DATA     BIT       S0_T_FIFO
      00000088H.1 SFRSYM    DATA     BIT       IE0
      000000B0H   SFRSYM    DATA     BIT       BUT_SPEED
      000000D9H   SFRSYM    DATA     BYTE      USB_INT_ST
      00000088H.3 SFRSYM    DATA     BIT       IE1
      000000A9H   SFRSYM    DATA     BYTE      WAKE_CTRL
      000000C5H   SFRSYM    DATA     BYTE      TKEY_DATH
      000000F0H   SFRSYM    DATA     BYTE      B
      0000009FH   SFRSYM    DATA     BYTE      ADC_DATA
      000000C8H   SFRSYM    DATA     BIT       CP_RL2
      000000C4H   SFRSYM    DATA     BYTE      TKEY_DATL
      00000093H   SFRSYM    DATA     BYTE      P1_DIR_PU
      000000E0H   SFRSYM    DATA     BYTE      ACC
      00000097H   SFRSYM    DATA     BYTE      P3_DIR_PU
      000000A8H.1 SFRSYM    DATA     BIT       ET0
      00000088H.5 SFRSYM    DATA     BIT       TF0
      000000A8H.3 SFRSYM    DATA     BIT       ET1
      00000088H.7 SFRSYM    DATA     BIT       TF1
      000000A8H.5 SFRSYM    DATA     BIT       ET2
      000000D1H   SFRSYM    DATA     BYTE      UDEV_CTRL
      000000C8H.7 SFRSYM    DATA     BIT       CAP1F
      000000C8H.7 SFRSYM    DATA     BIT       TF2
      00000098H.2 SFRSYM    DATA     BIT       RB8
      0000008CH   SFRSYM    DATA     BYTE      TH0
      0000008DH   SFRSYM    DATA     BYTE      TH1
LX51 LINKER/LOCATER V4.41                                                             12/15/2025  10:37:13  PAGE 31


      00000088H   SFRSYM    DATA     BIT       IT0
      000000A8H   SFRSYM    DATA     BIT       EX0
      000000ECH   SFRSYM    DATA     WORD      UEP0_DMA
      000000CDH   SFRSYM    DATA     BYTE      TH2
      00000098H.3 SFRSYM    DATA     BIT       TB8
      00000088H.2 SFRSYM    DATA     BIT       IT1
      00000090H.2 SFRSYM    DATA     BIT       RXD_
      000000A8H.2 SFRSYM    DATA     BIT       EX1
      000000B0H.4 SFRSYM    DATA     BIT       BUT_MUSIC
      000000EEH   SFRSYM    DATA     WORD      UEP1_DMA
      000000D0H   SFRSYM    DATA     BIT       P
      000000E4H   SFRSYM    DATA     WORD      UEP2_DMA
      00000080H.6 SFRSYM    DATA     BIT       CMP_IF
      00000098H.7 SFRSYM    DATA     BIT       SM0
      0000008AH   SFRSYM    DATA     BYTE      TL0
      00000090H.3 SFRSYM    DATA     BIT       TXD_
      000000E6H   SFRSYM    DATA     WORD      UEP3_DMA
      00000098H.6 SFRSYM    DATA     BIT       SM1
      0000008BH   SFRSYM    DATA     BYTE      TL1
      000000CCH   SFRSYM    DATA     BYTE      TL2
      00000098H.5 SFRSYM    DATA     BIT       SM2
      000000C0H.2 SFRSYM    DATA     BIT       U1RB8
      000000B8H.1 SFRSYM    DATA     BIT       PT0
      000000C3H   SFRSYM    DATA     BYTE      TKEY_CTRL
      000000C0H.3 SFRSYM    DATA     BIT       U1TB8
      000000CFH   SFRSYM    DATA     BYTE      T2CAP1H
      000000B8H.3 SFRSYM    DATA     BIT       PT1
      000000D0H.3 SFRSYM    DATA     BIT       RS0
      00000088H.4 SFRSYM    DATA     BIT       TR0
      000000B8H.5 SFRSYM    DATA     BIT       PT2
      000000D0H.4 SFRSYM    DATA     BIT       RS1
      000000C0H.7 SFRSYM    DATA     BIT       U1SM0
      00000088H.6 SFRSYM    DATA     BIT       TR1
      000000C8H.2 SFRSYM    DATA     BIT       TR2
      000000B8H   SFRSYM    DATA     BIT       PX0
      000000CEH   SFRSYM    DATA     BYTE      T2CAP1L
      000000CAH   SFRSYM    DATA     WORD      RCAP2
      000000E8H.2 SFRSYM    DATA     BIT       IE_USB
      000000B8H.2 SFRSYM    DATA     BIT       PX1
      00000080H.3 SFRSYM    DATA     BIT       CMP_CHAN
      0000009EH   SFRSYM    DATA     BYTE      PWM_CK_SE
      00000083H   SFRSYM    DATA     BYTE      DPH
      000000F8H.5 SFRSYM    DATA     BIT       S0_IF_FIRST
      000000E8H.4 SFRSYM    DATA     BIT       IE_UART1
      00000080H   SFRSYM    DATA     BYTE      ADC_CTRL
      00000082H   SFRSYM    DATA     BYTE      DPL
      00000090H.7 SFRSYM    DATA     BIT       SCK
      000000A1H   SFRSYM    DATA     BYTE      SAFE_MOD
      000000C1H   SFRSYM    DATA     BYTE      SBUF1
      000000C8H.3 SFRSYM    DATA     BIT       EXEN2
      000000B1H   SFRSYM    DATA     BYTE      GLOBAL_CFG
      000000C0H   SFRSYM    DATA     BYTE      SCON1
      00000098H.4 SFRSYM    DATA     BIT       REN
      00000090H.4 SFRSYM    DATA     BIT       CAP1_
      00000090H.4 SFRSYM    DATA     BIT       T2_
      000000B0H.7 SFRSYM    DATA     BIT       UDM
      000000C9H   SFRSYM    DATA     BYTE      T2MOD
      000000C8H   SFRSYM    DATA     BYTE      T2CON
      000000B0H.6 SFRSYM    DATA     BIT       UDP
      00000090H.4 SFRSYM    DATA     BIT       SCS
      000000D8H.2 SFRSYM    DATA     BIT       UIF_SUSPEND
      0000008EH   SFRSYM    DATA     WORD      ROM_DATA
      00000084H   SFRSYM    DATA     WORD      ROM_ADDR
      00000090H.7 SFRSYM    DATA     BIT       GPIO_RED
      000000C0H.4 SFRSYM    DATA     BIT       U1REN
LX51 LINKER/LOCATER V4.41                                                             12/15/2025  10:37:13  PAGE 32


      000000B0H   SFRSYM    DATA     BIT       RXD
      000000D8H.4 SFRSYM    DATA     BIT       UIF_FIFO_OV
      000000B0H.1 SFRSYM    DATA     BIT       TXD
      000000EBH   SFRSYM    DATA     BYTE      UEP2_3_MOD
      000000EAH   SFRSYM    DATA     BYTE      UEP4_1_MOD
      000000B0H.2 SFRSYM    DATA     BIT       VBUS1
      00000090H.1 SFRSYM    DATA     BIT       VBUS2
      00000080H   SFRSYM    DATA     BIT       ADC_CHAN0
      00000080H.1 SFRSYM    DATA     BIT       ADC_CHAN1
      000000C6H   SFRSYM    DATA     BYTE      PIN_FUNC
      000000D0H.5 SFRSYM    DATA     BIT       F0
      000000EDH   SFRSYM    DATA     BYTE      UEP0_DMA_H
      000000D0H.1 SFRSYM    DATA     BIT       F1
      000000EFH   SFRSYM    DATA     BYTE      UEP1_DMA_H
      000000E5H   SFRSYM    DATA     BYTE      UEP2_DMA_H
      000000C4H   SFRSYM    DATA     WORD      TKEY_DAT
      000000F8H.6 SFRSYM    DATA     BIT       S0_IF_OV
      000000E7H   SFRSYM    DATA     BYTE      UEP3_DMA_H
      0000009AH   SFRSYM    DATA     BYTE      ADC_CFG
      000000ECH   SFRSYM    DATA     BYTE      UEP0_DMA_L
      000000D0H   SFRSYM    DATA     BYTE      PSW
      000000EEH   SFRSYM    DATA     BYTE      UEP1_DMA_L
      000000E4H   SFRSYM    DATA     BYTE      UEP2_DMA_L
      000000E6H   SFRSYM    DATA     BYTE      UEP3_DMA_L
      02000100H   SYMBOL    XDATA    ---       chu_so
      0200010AH   SYMBOL    XDATA    ---       Prog_Auto
      02000129H   SYMBOL    XDATA    BYTE      _dBLast
      0200012BH   SYMBOL    XDATA    BYTE      __Flag_mode
      0200012CH   SYMBOL    XDATA    BYTE      Flag_Button
      0200012DH   SYMBOL    XDATA    BYTE      Flag_Music
      0200012EH   SYMBOL    XDATA    BYTE      k
      0200012FH   SYMBOL    XDATA    BYTE      m
      0200014DH   SYMBOL    XDATA    WORD      t

      0100001EH   BLOCK     CODE     ---       LVL=0
      0100001EH   LINE      CODE     ---       #30
      0100001EH   LINE      CODE     ---       #31
      0100001EH   LINE      CODE     ---       #32
      01000023H   LINE      CODE     ---       #33
      01000025H   LINE      CODE     ---       #34
      01000027H   LINE      CODE     ---       #35
      ---         BLOCKEND  ---      ---       LVL=0

      01001C39H   BLOCK     CODE     ---       LVL=0
      00000007H   SYMBOL    DATA     BYTE      ADC_Value_In
      01001C39H   BLOCK     CODE     NEAR LAB  LVL=1
      00000007H   SYMBOL    DATA     BYTE      _dBData
      ---         BLOCKEND  ---      ---       LVL=1
      01001C39H   LINE      CODE     ---       #36
      01001C39H   LINE      CODE     ---       #37
      01001C39H   LINE      CODE     ---       #39
      01001C3DH   LINE      CODE     ---       #42
      01001C47H   LINE      CODE     ---       #43
      01001C47H   LINE      CODE     ---       #44
      01001C4CH   LINE      CODE     ---       #45
      01001C51H   LINE      CODE     ---       #46
      01001C53H   LINE      CODE     ---       #48
      01001C53H   LINE      CODE     ---       #49
      01001C60H   LINE      CODE     ---       #50
      01001C60H   LINE      CODE     ---       #51
      01001C62H   LINE      CODE     ---       #52
      01001C6DH   LINE      CODE     ---       #53
      01001C6DH   LINE      CODE     ---       #54
      01001C6DH   LINE      CODE     ---       #55
      01001C72H   LINE      CODE     ---       #56
LX51 LINKER/LOCATER V4.41                                                             12/15/2025  10:37:13  PAGE 33


      ---         BLOCKEND  ---      ---       LVL=0

      01001CDDH   BLOCK     CODE     ---       LVL=0
      00000007H   SYMBOL    DATA     BYTE      Mode
      01001CDDH   LINE      CODE     ---       #58
      01001CDDH   LINE      CODE     ---       #59
      01001CDDH   LINE      CODE     ---       #60
      01001CE4H   LINE      CODE     ---       #61
      01001CE4H   LINE      CODE     ---       #62
      01001CE6H   LINE      CODE     ---       #63
      01001CEAH   LINE      CODE     ---       #64
      01001CEFH   LINE      CODE     ---       #65
      01001CF3H   LINE      CODE     ---       #66
      01001CF3H   LINE      CODE     ---       #67
      01001CF6H   LINE      CODE     ---       #68
      01001CF9H   LINE      CODE     ---       #69
      01001CFBH   LINE      CODE     ---       #71
      01001CFEH   LINE      CODE     ---       #72
      01001D00H   LINE      CODE     ---       #73
      01001D05H   LINE      CODE     ---       #74
      01001D05H   LINE      CODE     ---       #79
      ---         BLOCKEND  ---      ---       LVL=0

      010018A6H   BLOCK     CODE     ---       LVL=0
      00000007H   SYMBOL    DATA     BYTE      Speed
      010018A6H   BLOCK     CODE     NEAR LAB  LVL=1
      0200014FH   SYMBOL    XDATA    WORD      Temp
      ---         BLOCKEND  ---      ---       LVL=1
      010018A6H   LINE      CODE     ---       #80
      010018A6H   LINE      CODE     ---       #81
      010018A6H   LINE      CODE     ---       #83
      010018B2H   LINE      CODE     ---       #84
      010018B4H   LINE      CODE     ---       #85
      010018CCH   LINE      CODE     ---       #86
      010018EEH   LINE      CODE     ---       #87
      01001917H   LINE      CODE     ---       #88
      0100191DH   LINE      CODE     ---       #89
      0100191FH   LINE      CODE     ---       #90
      01001921H   LINE      CODE     ---       #91
      01001923H   LINE      CODE     ---       #92
      ---         BLOCKEND  ---      ---       LVL=0

      01001ACDH   BLOCK     CODE     VOID      LVL=0
      ---         BLOCKEND  ---      ---       LVL=0

      01001AD2H   BLOCK     CODE     ---       LVL=0
      00000003H   SYMBOL    DATA     BYTE      Brightness
      01001AD2H   LINE      CODE     ---       #93
      01001AD5H   LINE      CODE     ---       #94
      01001AD5H   LINE      CODE     ---       #95
      01001AEBH   LINE      CODE     ---       #96
      01001B01H   LINE      CODE     ---       #97
      01001B1AH   LINE      CODE     ---       #101
      ---         BLOCKEND  ---      ---       LVL=0

      01000FA6H   BLOCK     CODE     VOID      LVL=0
      ---         BLOCKEND  ---      ---       LVL=0

      01000FB6H   BLOCK     CODE     ---       LVL=0
      0200014FH   SYMBOL    XDATA    DWORD     Color
      02000153H   SYMBOL    XDATA    BYTE      Brightness
      01000FB6H   LINE      CODE     ---       #102
      01000FBCH   LINE      CODE     ---       #103
      01000FBCH   LINE      CODE     ---       #104
      01000FCCH   LINE      CODE     ---       #105
LX51 LINKER/LOCATER V4.41                                                             12/15/2025  10:37:13  PAGE 34


      01000FDCH   LINE      CODE     ---       #106
      01000FE7H   LINE      CODE     ---       #107
      01000FEDH   LINE      CODE     ---       #108
      01000FEDH   LINE      CODE     ---       #112
      01000FF0H   LINE      CODE     ---       #114
      01000FF0H   LINE      CODE     ---       #115
      ---         BLOCKEND  ---      ---       LVL=0

      0100178CH   BLOCK     CODE     VOID      LVL=0
      ---         BLOCKEND  ---      ---       LVL=0

      0100179EH   BLOCK     CODE     ---       LVL=0
      0200017FH   SYMBOL    XDATA    BYTE      color
      00000005H   SYMBOL    DATA     BYTE      duty
      00000003H   SYMBOL    DATA     BYTE      bright
      0100179EH   LINE      CODE     ---       #117
      010017A3H   LINE      CODE     ---       #118
      010017A3H   LINE      CODE     ---       #119
      010017ACH   LINE      CODE     ---       #120
      010017BBH   LINE      CODE     ---       #121
      010017C5H   LINE      CODE     ---       #123
      010017CBH   LINE      CODE     ---       #124
      010017ECH   LINE      CODE     ---       #126
      010017FBH   LINE      CODE     ---       #127
      ---         BLOCKEND  ---      ---       LVL=0

      01001C73H   BLOCK     CODE     ---       LVL=0
      00000007H   SYMBOL    DATA     BYTE      Data
      01001C73H   LINE      CODE     ---       #128
      01001C73H   LINE      CODE     ---       #129
      01001C73H   LINE      CODE     ---       #130
      01001C7BH   LINE      CODE     ---       #131
      01001C83H   LINE      CODE     ---       #132
      01001C8BH   LINE      CODE     ---       #133
      01001C93H   LINE      CODE     ---       #134
      01001C9BH   LINE      CODE     ---       #135
      01001CA3H   LINE      CODE     ---       #136
      01001CABH   LINE      CODE     ---       #137
      ---         BLOCKEND  ---      ---       LVL=0

      01001D78H   BLOCK     CODE     ---       LVL=0
      00000007H   SYMBOL    DATA     BYTE      Num
      01001D78H   LINE      CODE     ---       #138
      01001D78H   LINE      CODE     ---       #139
      01001D78H   LINE      CODE     ---       #140
      01001D7EH   LINE      CODE     ---       #141
      01001D8DH   LINE      CODE     ---       #142
      ---         BLOCKEND  ---      ---       LVL=0

      01000006H   BLOCK     CODE     ---       LVL=0
      01000006H   LINE      CODE     ---       #143
      01000006H   LINE      CODE     ---       #144
      01000006H   LINE      CODE     ---       #145
      01000008H   LINE      CODE     ---       #146
      ---         BLOCKEND  ---      ---       LVL=0

      01001DB1H   BLOCK     CODE     ---       LVL=0
      01001DB1H   LINE      CODE     ---       #147
      01001DB1H   LINE      CODE     ---       #148
      01001DB1H   LINE      CODE     ---       #149
      01001DB3H   LINE      CODE     ---       #150
      01001DB5H   LINE      CODE     ---       #151
      01001DB7H   LINE      CODE     ---       #152
      01001DB9H   LINE      CODE     ---       #153
      ---         BLOCKEND  ---      ---       LVL=0
LX51 LINKER/LOCATER V4.41                                                             12/15/2025  10:37:13  PAGE 35



      01001B1BH   BLOCK     CODE     ---       LVL=0
      00000007H   SYMBOL    DATA     BYTE      AutoEffect
      01001B1BH   LINE      CODE     ---       #154
      01001B1BH   LINE      CODE     ---       #155
      01001B1BH   LINE      CODE     ---       #156
      01001B21H   LINE      CODE     ---       #157
      01001B26H   LINE      CODE     ---       #158
      01001B38H   LINE      CODE     ---       #162
      01001B3BH   LINE      CODE     ---       #163
      01001B54H   LINE      CODE     ---       #164
      ---         BLOCKEND  ---      ---       LVL=0

      01001A09H   BLOCK     CODE     ---       LVL=0
      01001A09H   BLOCK     CODE     NEAR LAB  LVL=1
      02000180H   SYMBOL    XDATA    BYTE      i
      ---         BLOCKEND  ---      ---       LVL=1
      01001A09H   LINE      CODE     ---       #166
      01001A09H   LINE      CODE     ---       #167
      01001A09H   LINE      CODE     ---       #168
      01001A0EH   LINE      CODE     ---       #169
      01001A14H   LINE      CODE     ---       #170
      01001A14H   LINE      CODE     ---       #171
      01001A1DH   LINE      CODE     ---       #172
      01001A1DH   LINE      CODE     ---       #173
      01001A24H   LINE      CODE     ---       #174
      01001A2DH   LINE      CODE     ---       #175
      01001A30H   LINE      CODE     ---       #186
      01001A30H   LINE      CODE     ---       #188
      01001A39H   LINE      CODE     ---       #189
      01001A39H   LINE      CODE     ---       #190
      01001A40H   LINE      CODE     ---       #191
      01001A49H   LINE      CODE     ---       #192
      01001A4CH   LINE      CODE     ---       #203
      01001A4CH   LINE      CODE     ---       #204
      01001A55H   LINE      CODE     ---       #205
      01001A55H   LINE      CODE     ---       #206
      01001A5CH   LINE      CODE     ---       #207
      01001A65H   LINE      CODE     ---       #208
      01001A68H   LINE      CODE     ---       #219
      01001A68H   LINE      CODE     ---       #220
      01001A68H   LINE      CODE     ---       #221
      01001A6AH   LINE      CODE     ---       #222
      ---         BLOCKEND  ---      ---       LVL=0

      010012C8H   BLOCK     CODE     ---       LVL=0
      02000179H   SYMBOL    XDATA    BYTE      Bright
      010012CDH   BLOCK     CODE     NEAR LAB  LVL=1
      0200017AH   SYMBOL    XDATA    BYTE      Key
      ---         BLOCKEND  ---      ---       LVL=1
      010012C8H   LINE      CODE     ---       #223
      010012CDH   LINE      CODE     ---       #224
      010012CDH   LINE      CODE     ---       #225
      010012D5H   LINE      CODE     ---       #226
      010012EBH   LINE      CODE     ---       #227
      010012EBH   LINE      CODE     ---       #228
      010012EBH   LINE      CODE     ---       #229
      010012EBH   LINE      CODE     ---       #230
      010012EEH   LINE      CODE     ---       #231
      010012F4H   LINE      CODE     ---       #232
      010012F4H   LINE      CODE     ---       #233
      010012FCH   LINE      CODE     ---       #234
      01001303H   LINE      CODE     ---       #235
      01001306H   LINE      CODE     ---       #236
      0100130DH   LINE      CODE     ---       #237
LX51 LINKER/LOCATER V4.41                                                             12/15/2025  10:37:13  PAGE 36


      01001315H   LINE      CODE     ---       #239
      01001315H   LINE      CODE     ---       #240
      01001320H   LINE      CODE     ---       #241
      01001320H   LINE      CODE     ---       #242
      01001324H   LINE      CODE     ---       #243
      01001326H   LINE      CODE     ---       #244
      01001326H   LINE      CODE     ---       #245
      0100132EH   LINE      CODE     ---       #246
      0100132EH   LINE      CODE     ---       #247
      01001334H   LINE      CODE     ---       #248
      01001339H   LINE      CODE     ---       #249
      01001351H   LINE      CODE     ---       #250
      01001354H   LINE      CODE     ---       #251
      01001357H   LINE      CODE     ---       #252
      01001357H   LINE      CODE     ---       #253
      01001361H   LINE      CODE     ---       #254
      01001361H   LINE      CODE     ---       #255
      01001369H   LINE      CODE     ---       #256
      01001369H   LINE      CODE     ---       #257
      0100136FH   LINE      CODE     ---       #258
      01001374H   LINE      CODE     ---       #260
      0100137BH   LINE      CODE     ---       #261
      0100137EH   LINE      CODE     ---       #262
      0100138BH   LINE      CODE     ---       #263
      010013AAH   LINE      CODE     ---       #264
      010013B1H   LINE      CODE     ---       #265
      010013B3H   LINE      CODE     ---       #267
      010013B3H   LINE      CODE     ---       #268
      010013B5H   LINE      CODE     ---       #270
      010013B5H   LINE      CODE     ---       #271
      010013BAH   LINE      CODE     ---       #272
      010013C1H   LINE      CODE     ---       #273
      010013C4H   LINE      CODE     ---       #274
      010013D1H   LINE      CODE     ---       #275
      010013F0H   LINE      CODE     ---       #276
      010013F7H   LINE      CODE     ---       #277
      010013FFH   LINE      CODE     ---       #279
      01001404H   LINE      CODE     ---       #280
      01001404H   LINE      CODE     ---       #281
      01001404H   LINE      CODE     ---       #282
      01001404H   LINE      CODE     ---       #283
      01001406H   LINE      CODE     ---       #284
      01001406H   LINE      CODE     ---       #316
      01001406H   LINE      CODE     ---       #317
      01001406H   LINE      CODE     ---       #319
      01001415H   LINE      CODE     ---       #320
      01001418H   LINE      CODE     ---       #321
      01001420H   LINE      CODE     ---       #323
      01001425H   LINE      CODE     ---       #324
      01001432H   LINE      CODE     ---       #325
      01001432H   LINE      CODE     ---       #326
      01001434H   LINE      CODE     ---       #327
      01001434H   LINE      CODE     ---       #328
      01001434H   LINE      CODE     ---       #329
      01001434H   LINE      CODE     ---       #330
      0100143FH   LINE      CODE     ---       #331
      01001441H   LINE      CODE     ---       #332
      01001449H   LINE      CODE     ---       #333
      01001449H   LINE      CODE     ---       #335
      01001451H   LINE      CODE     ---       #336
      01001457H   LINE      CODE     ---       #337
      0100145CH   LINE      CODE     ---       #338
      0100145CH   LINE      CODE     ---       #339
      0100145CH   LINE      CODE     ---       #340
      0100145CH   LINE      CODE     ---       #341
LX51 LINKER/LOCATER V4.41                                                             12/15/2025  10:37:13  PAGE 37


      0100145EH   LINE      CODE     ---       #343
      0100145EH   LINE      CODE     ---       #344
      01001466H   LINE      CODE     ---       #345
      0100146CH   LINE      CODE     ---       #346
      01001472H   LINE      CODE     ---       #347
      01001478H   LINE      CODE     ---       #348
      01001491H   LINE      CODE     ---       #349
      01001494H   LINE      CODE     ---       #350
      01001494H   LINE      CODE     ---       #351
      01001494H   LINE      CODE     ---       #352
      01001496H   LINE      CODE     ---       #353
      01001496H   LINE      CODE     ---       #354
      01001496H   LINE      CODE     ---       #355
      01001496H   LINE      CODE     ---       #356
      0100149CH   LINE      CODE     ---       #357
      0100149CH   LINE      CODE     ---       #358
      010014A7H   LINE      CODE     ---       #359
      010014A7H   LINE      CODE     ---       #360
      010014A9H   LINE      CODE     ---       #361
      010014A9H   LINE      CODE     ---       #362
      010014AFH   LINE      CODE     ---       #363
      010014B2H   LINE      CODE     ---       #364
      010014B4H   LINE      CODE     ---       #366
      010014B4H   LINE      CODE     ---       #367
      010014BBH   LINE      CODE     ---       #368
      010014C1H   LINE      CODE     ---       #369
      010014C1H   LINE      CODE     ---       #370
      010014C4H   LINE      CODE     ---       #371
      010014C4H   LINE      CODE     ---       #372
      010014CCH   LINE      CODE     ---       #373
      010014CCH   LINE      CODE     ---       #374
      010014CFH   LINE      CODE     ---       #375
      010014CFH   LINE      CODE     ---       #376
      010014CFH   LINE      CODE     ---       #377
      010014CFH   LINE      CODE     ---       #378
      010014D9H   LINE      CODE     ---       #379
      ---         BLOCKEND  ---      ---       LVL=0

      0100004EH   BLOCK     CODE     ---       LVL=0
      02000170H   SYMBOL    XDATA    DWORD     Key
      02000174H   SYMBOL    XDATA    BYTE      Bright
      0100004EH   LINE      CODE     ---       #381
      01000054H   LINE      CODE     ---       #382
      01000054H   LINE      CODE     ---       #383
      0100007CH   LINE      CODE     ---       #384
      0100007CH   LINE      CODE     ---       #385
      01000081H   LINE      CODE     ---       #386
      01000094H   LINE      CODE     ---       #387
      0100009EH   LINE      CODE     ---       #388
      0100009FH   LINE      CODE     ---       #389
      010000C7H   LINE      CODE     ---       #390
      010000C7H   LINE      CODE     ---       #391
      010000CCH   LINE      CODE     ---       #392
      010000DFH   LINE      CODE     ---       #393
      010000E9H   LINE      CODE     ---       #394
      010000EAH   LINE      CODE     ---       #395
      01000112H   LINE      CODE     ---       #396
      01000112H   LINE      CODE     ---       #397
      01000117H   LINE      CODE     ---       #398
      0100012AH   LINE      CODE     ---       #399
      01000134H   LINE      CODE     ---       #400
      01000135H   LINE      CODE     ---       #401
      0100015DH   LINE      CODE     ---       #402
      0100015DH   LINE      CODE     ---       #403
      01000162H   LINE      CODE     ---       #404
LX51 LINKER/LOCATER V4.41                                                             12/15/2025  10:37:13  PAGE 38


      01000175H   LINE      CODE     ---       #405
      0100017FH   LINE      CODE     ---       #406
      01000180H   LINE      CODE     ---       #407
      010001A8H   LINE      CODE     ---       #408
      010001A8H   LINE      CODE     ---       #409
      010001ADH   LINE      CODE     ---       #410
      010001C0H   LINE      CODE     ---       #411
      010001CAH   LINE      CODE     ---       #412
      010001CBH   LINE      CODE     ---       #413
      010001F3H   LINE      CODE     ---       #414
      010001F3H   LINE      CODE     ---       #415
      010001F8H   LINE      CODE     ---       #416
      0100020BH   LINE      CODE     ---       #417
      01000215H   LINE      CODE     ---       #418
      01000216H   LINE      CODE     ---       #419
      0100023EH   LINE      CODE     ---       #420
      0100023EH   LINE      CODE     ---       #421
      01000243H   LINE      CODE     ---       #422
      01000256H   LINE      CODE     ---       #423
      01000260H   LINE      CODE     ---       #424
      01000261H   LINE      CODE     ---       #425
      01000289H   LINE      CODE     ---       #426
      01000289H   LINE      CODE     ---       #427
      0100028EH   LINE      CODE     ---       #428
      010002A1H   LINE      CODE     ---       #429
      010002ABH   LINE      CODE     ---       #430
      010002ACH   LINE      CODE     ---       #431
      010002D4H   LINE      CODE     ---       #432
      010002D4H   LINE      CODE     ---       #433
      010002D9H   LINE      CODE     ---       #434
      010002ECH   LINE      CODE     ---       #435
      010002F6H   LINE      CODE     ---       #436
      010002F7H   LINE      CODE     ---       #437
      0100031FH   LINE      CODE     ---       #438
      0100031FH   LINE      CODE     ---       #439
      01000324H   LINE      CODE     ---       #440
      01000337H   LINE      CODE     ---       #441
      01000341H   LINE      CODE     ---       #442
      01000342H   LINE      CODE     ---       #443
      0100036AH   LINE      CODE     ---       #444
      0100036AH   LINE      CODE     ---       #445
      0100036FH   LINE      CODE     ---       #446
      01000382H   LINE      CODE     ---       #447
      0100038CH   LINE      CODE     ---       #448
      0100038DH   LINE      CODE     ---       #449
      010003B5H   LINE      CODE     ---       #450
      010003B5H   LINE      CODE     ---       #451
      010003BAH   LINE      CODE     ---       #452
      010003CDH   LINE      CODE     ---       #453
      010003D7H   LINE      CODE     ---       #454
      010003D8H   LINE      CODE     ---       #455
      01000400H   LINE      CODE     ---       #456
      01000400H   LINE      CODE     ---       #457
      01000405H   LINE      CODE     ---       #458
      01000418H   LINE      CODE     ---       #459
      01000422H   LINE      CODE     ---       #460
      01000423H   LINE      CODE     ---       #461
      0100044BH   LINE      CODE     ---       #462
      0100044BH   LINE      CODE     ---       #463
      01000450H   LINE      CODE     ---       #464
      01000463H   LINE      CODE     ---       #465
      0100046DH   LINE      CODE     ---       #466
      0100046EH   LINE      CODE     ---       #467
      01000496H   LINE      CODE     ---       #468
      01000496H   LINE      CODE     ---       #469
LX51 LINKER/LOCATER V4.41                                                             12/15/2025  10:37:13  PAGE 39


      0100049BH   LINE      CODE     ---       #470
      010004AEH   LINE      CODE     ---       #471
      010004B8H   LINE      CODE     ---       #472
      010004B9H   LINE      CODE     ---       #473
      010004E1H   LINE      CODE     ---       #474
      010004E1H   LINE      CODE     ---       #475
      010004E6H   LINE      CODE     ---       #476
      010004F9H   LINE      CODE     ---       #477
      01000503H   LINE      CODE     ---       #478
      01000504H   LINE      CODE     ---       #495
      0100052CH   LINE      CODE     ---       #496
      0100052CH   LINE      CODE     ---       #497
      01000533H   LINE      CODE     ---       #498
      01000533H   LINE      CODE     ---       #499
      01000539H   LINE      CODE     ---       #500
      0100053BH   LINE      CODE     ---       #502
      0100053BH   LINE      CODE     ---       #503
      01000549H   LINE      CODE     ---       #504
      01000551H   LINE      CODE     ---       #505
      01000551H   LINE      CODE     ---       #506
      01000557H   LINE      CODE     ---       #507
      0100055CH   LINE      CODE     ---       #508
      01000574H   LINE      CODE     ---       #509
      01000577H   LINE      CODE     ---       #510
      01000577H   LINE      CODE     ---       #511
      01000579H   LINE      CODE     ---       #512
      010005A1H   LINE      CODE     ---       #513
      010005A1H   LINE      CODE     ---       #514
      010005A6H   LINE      CODE     ---       #515
      010005A6H   LINE      CODE     ---       #529
      010005CEH   LINE      CODE     ---       #530
      010005CEH   LINE      CODE     ---       #531
      010005D4H   LINE      CODE     ---       #532
      010005D4H   LINE      CODE     ---       #533
      010005DFH   LINE      CODE     ---       #534
      010005DFH   LINE      CODE     ---       #535
      010005E2H   LINE      CODE     ---       #536
      010005E8H   LINE      CODE     ---       #537
      010005EBH   LINE      CODE     ---       #538
      010005EBH   LINE      CODE     ---       #539
      010005EDH   LINE      CODE     ---       #541
      010005EDH   LINE      CODE     ---       #542
      010005F6H   LINE      CODE     ---       #543
      010005F6H   LINE      CODE     ---       #544
      010005F9H   LINE      CODE     ---       #545
      010005FEH   LINE      CODE     ---       #546
      010005FEH   LINE      CODE     ---       #547
      010005FEH   LINE      CODE     ---       #548
      010005FEH   LINE      CODE     ---       #550
      01000600H   LINE      CODE     ---       #551
      01000628H   LINE      CODE     ---       #552
      01000628H   LINE      CODE     ---       #553
      0100062EH   LINE      CODE     ---       #554
      0100062EH   LINE      CODE     ---       #555
      01000637H   LINE      CODE     ---       #556
      01000637H   LINE      CODE     ---       #557
      0100063AH   LINE      CODE     ---       #558
      0100063EH   LINE      CODE     ---       #559
      01000641H   LINE      CODE     ---       #560
      01000641H   LINE      CODE     ---       #561
      01000643H   LINE      CODE     ---       #563
      01000643H   LINE      CODE     ---       #564
      0100064CH   LINE      CODE     ---       #565
      0100064CH   LINE      CODE     ---       #566
      0100064FH   LINE      CODE     ---       #567
LX51 LINKER/LOCATER V4.41                                                             12/15/2025  10:37:13  PAGE 40


      01000654H   LINE      CODE     ---       #568
      01000654H   LINE      CODE     ---       #569
      01000654H   LINE      CODE     ---       #570
      01000654H   LINE      CODE     ---       #572
      01000656H   LINE      CODE     ---       #573
      0100067EH   LINE      CODE     ---       #574
      0100067EH   LINE      CODE     ---       #575
      01000684H   LINE      CODE     ---       #576
      01000684H   LINE      CODE     ---       #577
      01000686H   LINE      CODE     ---       #578
      01000699H   LINE      CODE     ---       #579
      010006A1H   LINE      CODE     ---       #580
      010006A9H   LINE      CODE     ---       #581
      010006B0H   LINE      CODE     ---       #582
      010006B8H   LINE      CODE     ---       #584
      010006BDH   LINE      CODE     ---       #585
      010006BFH   LINE      CODE     ---       #587
      010006BFH   LINE      CODE     ---       #588
      010006CAH   LINE      CODE     ---       #589
      010006CCH   LINE      CODE     ---       #590
      010006D4H   LINE      CODE     ---       #591
      010006DCH   LINE      CODE     ---       #593
      010006E1H   LINE      CODE     ---       #594
      010006E4H   LINE      CODE     ---       #595
      010006E7H   LINE      CODE     ---       #596
      010006E7H   LINE      CODE     ---       #597
      010006E7H   LINE      CODE     ---       #598
      010006E9H   LINE      CODE     ---       #599
      01000711H   LINE      CODE     ---       #600
      01000711H   LINE      CODE     ---       #601
      0100071CH   LINE      CODE     ---       #602
      0100071EH   LINE      CODE     ---       #603
      01000725H   LINE      CODE     ---       #604
      0100072BH   LINE      CODE     ---       #605
      0100072FH   LINE      CODE     ---       #606
      0100072FH   LINE      CODE     ---       #607
      01000735H   LINE      CODE     ---       #608
      01000737H   LINE      CODE     ---       #609
      0100073DH   LINE      CODE     ---       #610
      0100073DH   LINE      CODE     ---       #611
      01000743H   LINE      CODE     ---       #612
      01000749H   LINE      CODE     ---       #613
      01000762H   LINE      CODE     ---       #614
      01000768H   LINE      CODE     ---       #615
      0100076BH   LINE      CODE     ---       #616
      0100076BH   LINE      CODE     ---       #617
      ---         BLOCKEND  ---      ---       LVL=0

      01001924H   BLOCK     CODE     ---       LVL=0
      00000007H   SYMBOL    DATA     BYTE      Auto_Effect
      01001924H   LINE      CODE     ---       #618
      01001924H   LINE      CODE     ---       #619
      01001924H   LINE      CODE     ---       #620
      0100192FH   LINE      CODE     ---       #621
      0100192FH   LINE      CODE     ---       #622
      01001936H   LINE      CODE     ---       #623
      01001936H   LINE      CODE     ---       #624
      01001937H   LINE      CODE     ---       #625
      01001959H   LINE      CODE     ---       #627
      01001966H   LINE      CODE     ---       #628
      01001966H   LINE      CODE     ---       #629
      01001967H   LINE      CODE     ---       #630
      0100196CH   LINE      CODE     ---       #631
      0100196CH   LINE      CODE     ---       #632
      01001972H   LINE      CODE     ---       #633
LX51 LINKER/LOCATER V4.41                                                             12/15/2025  10:37:13  PAGE 41


      01001972H   LINE      CODE     ---       #634
      01001974H   LINE      CODE     ---       #635
      0100198EH   LINE      CODE     ---       #636
      0100199EH   LINE      CODE     ---       #638
      0100199EH   LINE      CODE     ---       #639
      0100199EH   LINE      CODE     ---       #640
      ---         BLOCKEND  ---      ---       LVL=0

      01000800H   BLOCK     CODE     ---       LVL=0
      0200017BH   SYMBOL    XDATA    BYTE      Prog_Effect
      0200017CH   SYMBOL    XDATA    BYTE      Bright
      01000800H   LINE      CODE     ---       #641
      0100080AH   LINE      CODE     ---       #642
      0100080AH   LINE      CODE     ---       #643
      01000810H   LINE      CODE     ---       #644
      01000810H   LINE      CODE     ---       #646
      01000815H   LINE      CODE     ---       #647
      01000827H   LINE      CODE     ---       #648
      01000827H   LINE      CODE     ---       #649
      01000831H   LINE      CODE     ---       #650
      01000841H   LINE      CODE     ---       #651
      01000841H   LINE      CODE     ---       #652
      0100084BH   LINE      CODE     ---       #653
      0100084FH   LINE      CODE     ---       #654
      0100084FH   LINE      CODE     ---       #655
      0100084FH   LINE      CODE     ---       #656
      01000860H   LINE      CODE     ---       #657
      01000860H   LINE      CODE     ---       #658
      0100086EH   LINE      CODE     ---       #659
      01000870H   LINE      CODE     ---       #660
      01000882H   LINE      CODE     ---       #661
      01000882H   LINE      CODE     ---       #662
      01000890H   LINE      CODE     ---       #663
      01000892H   LINE      CODE     ---       #664
      010008A6H   LINE      CODE     ---       #665
      010008A6H   LINE      CODE     ---       #666
      010008B4H   LINE      CODE     ---       #667
      010008B4H   LINE      CODE     ---       #668
      010008B6H   LINE      CODE     ---       #669
      010008C0H   LINE      CODE     ---       #670
      010008C0H   LINE      CODE     ---       #673
      010008C5H   LINE      CODE     ---       #674
      010008D7H   LINE      CODE     ---       #675
      010008D7H   LINE      CODE     ---       #676
      010008E1H   LINE      CODE     ---       #677
      0100090CH   LINE      CODE     ---       #678
      0100090CH   LINE      CODE     ---       #679
      0100091DH   LINE      CODE     ---       #680
      0100091DH   LINE      CODE     ---       #681
      0100091DH   LINE      CODE     ---       #682
      0100091FH   LINE      CODE     ---       #683
      01000931H   LINE      CODE     ---       #684
      01000931H   LINE      CODE     ---       #685
      01000931H   LINE      CODE     ---       #686
      01000933H   LINE      CODE     ---       #687
      01000947H   LINE      CODE     ---       #688
      01000947H   LINE      CODE     ---       #689
      01000947H   LINE      CODE     ---       #690
      01000947H   LINE      CODE     ---       #691
      01000949H   LINE      CODE     ---       #692
      01000951H   LINE      CODE     ---       #693
      01000951H   LINE      CODE     ---       #696
      01000956H   LINE      CODE     ---       #697
      0100096AH   LINE      CODE     ---       #698
      0100096AH   LINE      CODE     ---       #699
LX51 LINKER/LOCATER V4.41                                                             12/15/2025  10:37:13  PAGE 42


      01000974H   LINE      CODE     ---       #700
      01000986H   LINE      CODE     ---       #701
      01000986H   LINE      CODE     ---       #702
      01000990H   LINE      CODE     ---       #703
      01000994H   LINE      CODE     ---       #704
      01000994H   LINE      CODE     ---       #705
      01000994H   LINE      CODE     ---       #706
      01000994H   LINE      CODE     ---       #707
      01000996H   LINE      CODE     ---       #708
      010009A0H   LINE      CODE     ---       #709
      010009A0H   LINE      CODE     ---       #712
      010009A5H   LINE      CODE     ---       #713
      010009B7H   LINE      CODE     ---       #714
      010009B7H   LINE      CODE     ---       #715
      010009C1H   LINE      CODE     ---       #716
      010009DFH   LINE      CODE     ---       #717
      010009DFH   LINE      CODE     ---       #718
      010009F0H   LINE      CODE     ---       #719
      010009F0H   LINE      CODE     ---       #720
      010009F0H   LINE      CODE     ---       #721
      010009F2H   LINE      CODE     ---       #722
      01000A04H   LINE      CODE     ---       #723
      01000A04H   LINE      CODE     ---       #724
      01000A04H   LINE      CODE     ---       #726
      01000A06H   LINE      CODE     ---       #727
      01000A18H   LINE      CODE     ---       #728
      01000A18H   LINE      CODE     ---       #729
      01000A18H   LINE      CODE     ---       #730
      01000A1AH   LINE      CODE     ---       #731
      01000A2CH   LINE      CODE     ---       #732
      01000A2CH   LINE      CODE     ---       #733
      01000A2CH   LINE      CODE     ---       #734
      01000A2CH   LINE      CODE     ---       #735
      01000A2EH   LINE      CODE     ---       #736
      01000A40H   LINE      CODE     ---       #737
      01000A40H   LINE      CODE     ---       #738
      01000A40H   LINE      CODE     ---       #739
      01000A40H   LINE      CODE     ---       #740
      01000A42H   LINE      CODE     ---       #741
      01000A54H   LINE      CODE     ---       #742
      01000A54H   LINE      CODE     ---       #743
      01000A57H   LINE      CODE     ---       #744
      01000A74H   LINE      CODE     ---       #745
      01000A76H   LINE      CODE     ---       #746
      01000A8AH   LINE      CODE     ---       #747
      01000A8AH   LINE      CODE     ---       #748
      01000A8AH   LINE      CODE     ---       #749
      01000A8AH   LINE      CODE     ---       #750
      01000A8AH   LINE      CODE     ---       #751
      01000A8AH   LINE      CODE     ---       #752
      01000A8CH   LINE      CODE     ---       #753
      01000A96H   LINE      CODE     ---       #754
      01000A96H   LINE      CODE     ---       #757
      01000A9BH   LINE      CODE     ---       #758
      01000AADH   LINE      CODE     ---       #759
      01000AADH   LINE      CODE     ---       #760
      01000AB7H   LINE      CODE     ---       #761
      01000AD5H   LINE      CODE     ---       #762
      01000AD5H   LINE      CODE     ---       #763
      01000AE6H   LINE      CODE     ---       #764
      01000AE8H   LINE      CODE     ---       #765
      01000AFAH   LINE      CODE     ---       #766
      01000AFCH   LINE      CODE     ---       #767
      01000B0EH   LINE      CODE     ---       #768
      01000B10H   LINE      CODE     ---       #769
LX51 LINKER/LOCATER V4.41                                                             12/15/2025  10:37:13  PAGE 43


      01000B22H   LINE      CODE     ---       #770
      01000B24H   LINE      CODE     ---       #771
      01000B36H   LINE      CODE     ---       #772
      01000B3EH   LINE      CODE     ---       #773
      01000B50H   LINE      CODE     ---       #774
      01000B52H   LINE      CODE     ---       #775
      01000B64H   LINE      CODE     ---       #776
      01000B64H   LINE      CODE     ---       #777
      01000B70H   LINE      CODE     ---       #778
      01000B7CH   LINE      CODE     ---       #779
      01000B7EH   LINE      CODE     ---       #780
      01000B90H   LINE      CODE     ---       #781
      01000B90H   LINE      CODE     ---       #782
      01000B93H   LINE      CODE     ---       #783
      01000BB0H   LINE      CODE     ---       #784
      01000BB2H   LINE      CODE     ---       #785
      01000BC4H   LINE      CODE     ---       #786
      01000BC4H   LINE      CODE     ---       #787
      01000BD7H   LINE      CODE     ---       #788
      01000BE0H   LINE      CODE     ---       #789
      01000BE2H   LINE      CODE     ---       #790
      01000BF4H   LINE      CODE     ---       #791
      01000BF4H   LINE      CODE     ---       #792
      01000C09H   LINE      CODE     ---       #793
      01000C1BH   LINE      CODE     ---       #794
      01000C1DH   LINE      CODE     ---       #795
      01000C2FH   LINE      CODE     ---       #796
      01000C2FH   LINE      CODE     ---       #797
      01000C4AH   LINE      CODE     ---       #798
      01000C5AH   LINE      CODE     ---       #799
      01000C5CH   LINE      CODE     ---       #800
      01000C6EH   LINE      CODE     ---       #801
      01000C6EH   LINE      CODE     ---       #802
      01000C98H   LINE      CODE     ---       #803
      01000CAAH   LINE      CODE     ---       #804
      01000CACH   LINE      CODE     ---       #805
      01000CBEH   LINE      CODE     ---       #806
      01000CBEH   LINE      CODE     ---       #807
      01000CCAH   LINE      CODE     ---       #808
      01000CDDH   LINE      CODE     ---       #809
      01000CEDH   LINE      CODE     ---       #810
      01000CEFH   LINE      CODE     ---       #811
      01000D03H   LINE      CODE     ---       #812
      01000D03H   LINE      CODE     ---       #813
      01000D06H   LINE      CODE     ---       #814
      01000D1BH   LINE      CODE     ---       #815
      01000D30H   LINE      CODE     ---       #816
      01000D30H   LINE      CODE     ---       #817
      01000D30H   LINE      CODE     ---       #818
      01000D3AH   LINE      CODE     ---       #819
      01000D3AH   LINE      CODE     ---       #821
      01000D3FH   LINE      CODE     ---       #822
      01000D51H   LINE      CODE     ---       #823
      01000D51H   LINE      CODE     ---       #824
      01000D5BH   LINE      CODE     ---       #825
      01000D79H   LINE      CODE     ---       #826
      01000D79H   LINE      CODE     ---       #827
      01000D8AH   LINE      CODE     ---       #828
      01000D8AH   LINE      CODE     ---       #830
      01000D90H   LINE      CODE     ---       #831
      01000D9AH   LINE      CODE     ---       #832
      01000D9AH   LINE      CODE     ---       #833
      01000D9CH   LINE      CODE     ---       #834
      01000DAEH   LINE      CODE     ---       #835
      01000DAEH   LINE      CODE     ---       #836
LX51 LINKER/LOCATER V4.41                                                             12/15/2025  10:37:13  PAGE 44


      01000DBCH   LINE      CODE     ---       #837
      01000DC0H   LINE      CODE     ---       #838
      01000DC3H   LINE      CODE     ---       #839
      01000DC4H   LINE      CODE     ---       #840
      01000DD6H   LINE      CODE     ---       #841
      01000DD6H   LINE      CODE     ---       #842
      01000DDAH   LINE      CODE     ---       #843
      01000DDEH   LINE      CODE     ---       #844
      01000DE9H   LINE      CODE     ---       #845
      01000DEAH   LINE      CODE     ---       #846
      01000DFCH   LINE      CODE     ---       #847
      01000DFCH   LINE      CODE     ---       #848
      01000E00H   LINE      CODE     ---       #849
      01000E0DH   LINE      CODE     ---       #850
      01000E0DH   LINE      CODE     ---       #851
      01000E0FH   LINE      CODE     ---       #852
      01000E21H   LINE      CODE     ---       #853
      01000E21H   LINE      CODE     ---       #854
      01000E2CH   LINE      CODE     ---       #855
      01000E2FH   LINE      CODE     ---       #856
      01000E33H   LINE      CODE     ---       #857
      01000E34H   LINE      CODE     ---       #858
      01000E48H   LINE      CODE     ---       #859
      01000E48H   LINE      CODE     ---       #860
      01000E4EH   LINE      CODE     ---       #861
      01000E51H   LINE      CODE     ---       #862
      01000E5FH   LINE      CODE     ---       #863
      01000E5FH   LINE      CODE     ---       #864
      01000E60H   LINE      CODE     ---       #865
      01000E6AH   LINE      CODE     ---       #866
      01000E6AH   LINE      CODE     ---       #868
      01000E6FH   LINE      CODE     ---       #869
      01000E7AH   LINE      CODE     ---       #870
      01000E7AH   LINE      CODE     ---       #871
      01000E7CH   LINE      CODE     ---       #872
      01000E8EH   LINE      CODE     ---       #873
      01000E8EH   LINE      CODE     ---       #874
      01000E98H   LINE      CODE     ---       #875
      01000EB5H   LINE      CODE     ---       #876
      01000EB5H   LINE      CODE     ---       #877
      01000EB5H   LINE      CODE     ---       #878
      01000EE2H   LINE      CODE     ---       #879
      01000EF5H   LINE      CODE     ---       #880
      01000EF5H   LINE      CODE     ---       #881
      ---         BLOCKEND  ---      ---       LVL=0

      ---         MODULE    ---      ---       SAVEDATA
      01001D06H   PUBLIC    CODE     ---       LOADSAVEDATA
      01001BF7H   PUBLIC    CODE     ---       SAVEDATA
      000000D8H.3 SFRSYM    DATA     BIT       UIF_HST_SOF
      000000B0H.4 SFRSYM    DATA     BIT       RXD1_
      000000D8H   SFRSYM    DATA     BIT       UIF_DETECT
      00000090H   SFRSYM    DATA     BYTE      P1
      000000E2H   SFRSYM    DATA     BYTE      USB_CTRL
      000000B0H.2 SFRSYM    DATA     BIT       TXD1_
      000000A0H   SFRSYM    DATA     BYTE      P2
      000000B0H   SFRSYM    DATA     BYTE      P3
      00000090H   SFRSYM    DATA     BIT       GPIO_GREEN
      000000B0H.4 SFRSYM    DATA     BIT       T0
      000000D0H.6 SFRSYM    DATA     BIT       AC
      000000FBH   SFRSYM    DATA     BYTE      SPI0_CK_SE
      000000B0H.5 SFRSYM    DATA     BIT       T1
      000000B0H   SFRSYM    DATA     BIT       PWM1_
      00000090H   SFRSYM    DATA     BIT       CAP1
      00000090H   SFRSYM    DATA     BIT       T2
LX51 LINKER/LOCATER V4.41                                                             12/15/2025  10:37:13  PAGE 45


      00000086H   SFRSYM    DATA     BYTE      ROM_CTRL
      000000A8H.6 SFRSYM    DATA     BIT       E_DIS
      000000A8H.7 SFRSYM    DATA     BIT       EA
      000000F8H.3 SFRSYM    DATA     BIT       S0_FREE
      000000B0H.1 SFRSYM    DATA     BIT       PWM2_
      00000090H.1 SFRSYM    DATA     BIT       CAP2
      000000F8H.4 SFRSYM    DATA     BIT       S0_IF_BYTE
      00000090H.1 SFRSYM    DATA     BIT       AIN0
      00000090H.4 SFRSYM    DATA     BIT       AIN1
      000000D8H   SFRSYM    DATA     BIT       UIF_BUS_RST
      000000F8H.7 SFRSYM    DATA     BIT       S0_FST_ACT
      00000090H.5 SFRSYM    DATA     BIT       AIN2
      0000009DH   SFRSYM    DATA     BYTE      PWM_CTRL
      000000B0H.2 SFRSYM    DATA     BIT       AIN3
      000000E8H   SFRSYM    DATA     BIT       IE_SPI0
      000000E8H   SFRSYM    DATA     BYTE      IE_EX
      000000FEH   SFRSYM    DATA     BYTE      RESET_KEEP
      000000D8H.7 SFRSYM    DATA     BIT       U_IS_NAK
      000000CEH   SFRSYM    DATA     WORD      T2CAP1
      00000090H.4 SFRSYM    DATA     BIT       UCC1
      00000090H.5 SFRSYM    DATA     BIT       UCC2
      000000A8H   SFRSYM    DATA     BYTE      IE
      000000DDH   SFRSYM    DATA     BYTE      UEP0_T_LEN
      000000E3H   SFRSYM    DATA     BYTE      USB_DEV_AD
      000000D3H   SFRSYM    DATA     BYTE      UEP1_T_LEN
      000000FCH   SFRSYM    DATA     BYTE      SPI0_SETUP
      000000D5H   SFRSYM    DATA     BYTE      UEP2_T_LEN
      000000CCH   SFRSYM    DATA     WORD      T2COUNT
      000000D7H   SFRSYM    DATA     BYTE      UEP3_T_LEN
      000000A2H   SFRSYM    DATA     BYTE      XBUS_AUX
      0000008FH   SFRSYM    DATA     BYTE      ROM_DATA_H
      000000B0H.3 SFRSYM    DATA     BIT       BUT_DON_DA
      000000DFH   SFRSYM    DATA     BYTE      UEP4_T_LEN
      00000085H   SFRSYM    DATA     BYTE      ROM_ADDR_H
      000000B8H.7 SFRSYM    DATA     BIT       PH_FLAG
      000000C8H.6 SFRSYM    DATA     BIT       EXF2
      0000008EH   SFRSYM    DATA     BYTE      ROM_DATA_L
      000000E9H   SFRSYM    DATA     BYTE      IP_EX
      00000084H   SFRSYM    DATA     BYTE      ROM_ADDR_L
      000000B8H.6 SFRSYM    DATA     BIT       PL_FLAG
      000000A8H.4 SFRSYM    DATA     BIT       ES
      000000F9H   SFRSYM    DATA     BYTE      SPI0_DATA
      000000B8H   SFRSYM    DATA     BYTE      IP
      000000D8H.5 SFRSYM    DATA     BIT       U_SIE_FREE
      000000D8H.6 SFRSYM    DATA     BIT       U_TOG_OK
      00000098H   SFRSYM    DATA     BIT       RI
      000000B0H.2 SFRSYM    DATA     BIT       INT0
      00000090H   SFRSYM    DATA     BIT       TIN0
      000000D0H.7 SFRSYM    DATA     BIT       CY
      00000098H.1 SFRSYM    DATA     BIT       TI
      000000B0H.3 SFRSYM    DATA     BIT       INT1
      00000090H.1 SFRSYM    DATA     BIT       TIN1
      00000090H.4 SFRSYM    DATA     BIT       TIN2
      000000FFH   SFRSYM    DATA     BYTE      WDOG_COUNT
      00000090H.5 SFRSYM    DATA     BIT       TIN3
      000000C7H   SFRSYM    DATA     BYTE      GPIO_IE
      000000E8H.6 SFRSYM    DATA     BIT       IE_GPIO
      000000B9H   SFRSYM    DATA     BYTE      CLOCK_CFG
      00000090H.6 SFRSYM    DATA     BIT       TIN4
      00000090H.6 SFRSYM    DATA     BIT       RXD1
      00000090H.7 SFRSYM    DATA     BIT       TIN5
      000000E8H.7 SFRSYM    DATA     BIT       IE_WDOG
      000000C2H   SFRSYM    DATA     BYTE      SBAUD1
      000000C0H   SFRSYM    DATA     BIT       U1RI
      0000009CH   SFRSYM    DATA     BYTE      PWM_DATA1
LX51 LINKER/LOCATER V4.41                                                             12/15/2025  10:37:13  PAGE 46


      000000CBH   SFRSYM    DATA     BYTE      RCAP2H
      00000090H.7 SFRSYM    DATA     BIT       TXD1
      0000009BH   SFRSYM    DATA     BYTE      PWM_DATA2
      000000B8H.4 SFRSYM    DATA     BIT       PS
      00000081H   SFRSYM    DATA     BYTE      SP
      000000C0H.1 SFRSYM    DATA     BIT       U1TI
      00000090H.1 SFRSYM    DATA     BIT       T2EX
      000000D8H   SFRSYM    DATA     BYTE      USB_INT_FG
      00000091H   SFRSYM    DATA     BYTE      USB_C_CTRL
      000000D0H.2 SFRSYM    DATA     BIT       OV
      000000CAH   SFRSYM    DATA     BYTE      RCAP2L
      00000090H.5 SFRSYM    DATA     BIT       PWM1
      000000B0H.4 SFRSYM    DATA     BIT       PWM2
      000000C8H.1 SFRSYM    DATA     BIT       C_T2
      000000B0H.5 SFRSYM    DATA     BIT       LED7_DATA_A
      00000090H.5 SFRSYM    DATA     BIT       LED7_DATA_B
      000000E1H   SFRSYM    DATA     BYTE      USB_INT_EN
      00000090H.6 SFRSYM    DATA     BIT       LED7_DATA_C
      00000090H.4 SFRSYM    DATA     BIT       LED7_DATA_D
      000000C8H.5 SFRSYM    DATA     BIT       RCLK
      000000E8H.1 SFRSYM    DATA     BIT       IE_TKEY
      000000B0H.2 SFRSYM    DATA     BIT       LED7_DATA_E
      000000D8H.1 SFRSYM    DATA     BIT       UIF_TRANSFER
      00000090H.3 SFRSYM    DATA     BIT       LED7_DATA_F
      000000C8H.4 SFRSYM    DATA     BIT       TCLK
      00000090H.2 SFRSYM    DATA     BIT       LED7_DATA_G
      00000080H.7 SFRSYM    DATA     BIT       CMPO
      00000099H   SFRSYM    DATA     BYTE      SBUF
      00000087H   SFRSYM    DATA     BYTE      PCON
      000000DCH   SFRSYM    DATA     BYTE      UEP0_CTRL
      000000D2H   SFRSYM    DATA     BYTE      UEP1_CTRL
      000000D4H   SFRSYM    DATA     BYTE      UEP2_CTRL
      000000FAH   SFRSYM    DATA     BYTE      SPI0_CTRL
      00000098H   SFRSYM    DATA     BYTE      SCON
      000000D6H   SFRSYM    DATA     BYTE      UEP3_CTRL
      00000089H   SFRSYM    DATA     BYTE      TMOD
      00000088H   SFRSYM    DATA     BYTE      TCON
      00000092H   SFRSYM    DATA     BYTE      P1_MOD_OC
      000000DEH   SFRSYM    DATA     BYTE      UEP4_CTRL
      000000DBH   SFRSYM    DATA     BYTE      USB_RX_LEN
      00000096H   SFRSYM    DATA     BYTE      P3_MOD_OC
      000000E8H.3 SFRSYM    DATA     BIT       IE_ADC
      00000080H.5 SFRSYM    DATA     BIT       ADC_IF
      00000080H.4 SFRSYM    DATA     BIT       ADC_START
      00000090H.5 SFRSYM    DATA     BIT       MOSI
      00000090H.6 SFRSYM    DATA     BIT       MISO
      000000B0H.1 SFRSYM    DATA     BIT       GPIO_BLUE
      000000C0H.5 SFRSYM    DATA     BIT       U1SMOD
      000000F8H   SFRSYM    DATA     BIT       S0_R_FIFO
      000000F8H   SFRSYM    DATA     BYTE      SPI0_STAT
      000000E8H.5 SFRSYM    DATA     BIT       IE_PWMX
      000000DAH   SFRSYM    DATA     BYTE      USB_MIS_ST
      000000F8H.2 SFRSYM    DATA     BIT       S0_T_FIFO
      00000088H.1 SFRSYM    DATA     BIT       IE0
      000000B0H   SFRSYM    DATA     BIT       BUT_SPEED
      000000D9H   SFRSYM    DATA     BYTE      USB_INT_ST
      00000088H.3 SFRSYM    DATA     BIT       IE1
      000000A9H   SFRSYM    DATA     BYTE      WAKE_CTRL
      000000C5H   SFRSYM    DATA     BYTE      TKEY_DATH
      000000F0H   SFRSYM    DATA     BYTE      B
      0000009FH   SFRSYM    DATA     BYTE      ADC_DATA
      000000C8H   SFRSYM    DATA     BIT       CP_RL2
      000000C4H   SFRSYM    DATA     BYTE      TKEY_DATL
      00000093H   SFRSYM    DATA     BYTE      P1_DIR_PU
      000000E0H   SFRSYM    DATA     BYTE      ACC
LX51 LINKER/LOCATER V4.41                                                             12/15/2025  10:37:13  PAGE 47


      00000097H   SFRSYM    DATA     BYTE      P3_DIR_PU
      000000A8H.1 SFRSYM    DATA     BIT       ET0
      00000088H.5 SFRSYM    DATA     BIT       TF0
      000000A8H.3 SFRSYM    DATA     BIT       ET1
      00000088H.7 SFRSYM    DATA     BIT       TF1
      000000A8H.5 SFRSYM    DATA     BIT       ET2
      000000D1H   SFRSYM    DATA     BYTE      UDEV_CTRL
      000000C8H.7 SFRSYM    DATA     BIT       CAP1F
      000000C8H.7 SFRSYM    DATA     BIT       TF2
      00000098H.2 SFRSYM    DATA     BIT       RB8
      0000008CH   SFRSYM    DATA     BYTE      TH0
      0000008DH   SFRSYM    DATA     BYTE      TH1
      00000088H   SFRSYM    DATA     BIT       IT0
      000000A8H   SFRSYM    DATA     BIT       EX0
      000000ECH   SFRSYM    DATA     WORD      UEP0_DMA
      000000CDH   SFRSYM    DATA     BYTE      TH2
      00000098H.3 SFRSYM    DATA     BIT       TB8
      00000088H.2 SFRSYM    DATA     BIT       IT1
      00000090H.2 SFRSYM    DATA     BIT       RXD_
      000000A8H.2 SFRSYM    DATA     BIT       EX1
      000000B0H.4 SFRSYM    DATA     BIT       BUT_MUSIC
      000000EEH   SFRSYM    DATA     WORD      UEP1_DMA
      000000D0H   SFRSYM    DATA     BIT       P
      000000E4H   SFRSYM    DATA     WORD      UEP2_DMA
      00000080H.6 SFRSYM    DATA     BIT       CMP_IF
      00000098H.7 SFRSYM    DATA     BIT       SM0
      0000008AH   SFRSYM    DATA     BYTE      TL0
      00000090H.3 SFRSYM    DATA     BIT       TXD_
      000000E6H   SFRSYM    DATA     WORD      UEP3_DMA
      00000098H.6 SFRSYM    DATA     BIT       SM1
      0000008BH   SFRSYM    DATA     BYTE      TL1
      000000CCH   SFRSYM    DATA     BYTE      TL2
      00000098H.5 SFRSYM    DATA     BIT       SM2
      000000C0H.2 SFRSYM    DATA     BIT       U1RB8
      000000B8H.1 SFRSYM    DATA     BIT       PT0
      000000C3H   SFRSYM    DATA     BYTE      TKEY_CTRL
      000000C0H.3 SFRSYM    DATA     BIT       U1TB8
      000000CFH   SFRSYM    DATA     BYTE      T2CAP1H
      000000B8H.3 SFRSYM    DATA     BIT       PT1
      000000D0H.3 SFRSYM    DATA     BIT       RS0
      00000088H.4 SFRSYM    DATA     BIT       TR0
      000000B8H.5 SFRSYM    DATA     BIT       PT2
      000000D0H.4 SFRSYM    DATA     BIT       RS1
      000000C0H.7 SFRSYM    DATA     BIT       U1SM0
      00000088H.6 SFRSYM    DATA     BIT       TR1
      000000C8H.2 SFRSYM    DATA     BIT       TR2
      000000B8H   SFRSYM    DATA     BIT       PX0
      000000CEH   SFRSYM    DATA     BYTE      T2CAP1L
      000000CAH   SFRSYM    DATA     WORD      RCAP2
      000000E8H.2 SFRSYM    DATA     BIT       IE_USB
      000000B8H.2 SFRSYM    DATA     BIT       PX1
      00000080H.3 SFRSYM    DATA     BIT       CMP_CHAN
      0000009EH   SFRSYM    DATA     BYTE      PWM_CK_SE
      00000083H   SFRSYM    DATA     BYTE      DPH
      000000F8H.5 SFRSYM    DATA     BIT       S0_IF_FIRST
      000000E8H.4 SFRSYM    DATA     BIT       IE_UART1
      00000080H   SFRSYM    DATA     BYTE      ADC_CTRL
      00000082H   SFRSYM    DATA     BYTE      DPL
      00000090H.7 SFRSYM    DATA     BIT       SCK
      000000A1H   SFRSYM    DATA     BYTE      SAFE_MOD
      000000C1H   SFRSYM    DATA     BYTE      SBUF1
      000000C8H.3 SFRSYM    DATA     BIT       EXEN2
      000000B1H   SFRSYM    DATA     BYTE      GLOBAL_CFG
      000000C0H   SFRSYM    DATA     BYTE      SCON1
      00000098H.4 SFRSYM    DATA     BIT       REN
LX51 LINKER/LOCATER V4.41                                                             12/15/2025  10:37:13  PAGE 48


      00000090H.4 SFRSYM    DATA     BIT       CAP1_
      00000090H.4 SFRSYM    DATA     BIT       T2_
      000000B0H.7 SFRSYM    DATA     BIT       UDM
      000000C9H   SFRSYM    DATA     BYTE      T2MOD
      000000C8H   SFRSYM    DATA     BYTE      T2CON
      000000B0H.6 SFRSYM    DATA     BIT       UDP
      00000090H.4 SFRSYM    DATA     BIT       SCS
      000000D8H.2 SFRSYM    DATA     BIT       UIF_SUSPEND
      0000008EH   SFRSYM    DATA     WORD      ROM_DATA
      00000084H   SFRSYM    DATA     WORD      ROM_ADDR
      00000090H.7 SFRSYM    DATA     BIT       GPIO_RED
      000000C0H.4 SFRSYM    DATA     BIT       U1REN
      000000B0H   SFRSYM    DATA     BIT       RXD
      000000D8H.4 SFRSYM    DATA     BIT       UIF_FIFO_OV
      000000B0H.1 SFRSYM    DATA     BIT       TXD
      000000EBH   SFRSYM    DATA     BYTE      UEP2_3_MOD
      000000EAH   SFRSYM    DATA     BYTE      UEP4_1_MOD
      000000B0H.2 SFRSYM    DATA     BIT       VBUS1
      00000090H.1 SFRSYM    DATA     BIT       VBUS2
      00000080H   SFRSYM    DATA     BIT       ADC_CHAN0
      00000080H.1 SFRSYM    DATA     BIT       ADC_CHAN1
      000000C6H   SFRSYM    DATA     BYTE      PIN_FUNC
      000000D0H.5 SFRSYM    DATA     BIT       F0
      000000EDH   SFRSYM    DATA     BYTE      UEP0_DMA_H
      000000D0H.1 SFRSYM    DATA     BIT       F1
      000000EFH   SFRSYM    DATA     BYTE      UEP1_DMA_H
      000000E5H   SFRSYM    DATA     BYTE      UEP2_DMA_H
      000000C4H   SFRSYM    DATA     WORD      TKEY_DAT
      000000F8H.6 SFRSYM    DATA     BIT       S0_IF_OV
      000000E7H   SFRSYM    DATA     BYTE      UEP3_DMA_H
      0000009AH   SFRSYM    DATA     BYTE      ADC_CFG
      000000ECH   SFRSYM    DATA     BYTE      UEP0_DMA_L
      000000D0H   SFRSYM    DATA     BYTE      PSW
      000000EEH   SFRSYM    DATA     BYTE      UEP1_DMA_L
      000000E4H   SFRSYM    DATA     BYTE      UEP2_DMA_L
      000000E6H   SFRSYM    DATA     BYTE      UEP3_DMA_L

      01001BF7H   BLOCK     CODE     ---       LVL=0
      01001BF7H   LINE      CODE     ---       #9
      01001BF7H   LINE      CODE     ---       #10
      01001BF7H   LINE      CODE     ---       #11
      01001C0DH   LINE      CODE     ---       #12
      01001C23H   LINE      CODE     ---       #13
      ---         BLOCKEND  ---      ---       LVL=0

      01001D06H   BLOCK     CODE     ---       LVL=0
      01001D06H   LINE      CODE     ---       #15
      01001D06H   LINE      CODE     ---       #16
      01001D06H   LINE      CODE     ---       #17
      01001D12H   LINE      CODE     ---       #18
      01001D1EH   LINE      CODE     ---       #19
      ---         BLOCKEND  ---      ---       LVL=0

      ---         MODULE    ---      ---       WRITEFLASHROM
      02000154H   PUBLIC    XDATA    BYTE      ?_WriteDoubleByteROM?BYTE
      01001A6BH   PUBLIC    CODE     ---       _WriteDoubleByteROM
      000000D8H.3 SFRSYM    DATA     BIT       UIF_HST_SOF
      000000B0H.4 SFRSYM    DATA     BIT       RXD1_
      000000D8H   SFRSYM    DATA     BIT       UIF_DETECT
      00000090H   SFRSYM    DATA     BYTE      P1
      000000E2H   SFRSYM    DATA     BYTE      USB_CTRL
      000000B0H.2 SFRSYM    DATA     BIT       TXD1_
      000000A0H   SFRSYM    DATA     BYTE      P2
      000000B0H   SFRSYM    DATA     BYTE      P3
      000000B0H.4 SFRSYM    DATA     BIT       T0
LX51 LINKER/LOCATER V4.41                                                             12/15/2025  10:37:13  PAGE 49


      000000D0H.6 SFRSYM    DATA     BIT       AC
      000000FBH   SFRSYM    DATA     BYTE      SPI0_CK_SE
      000000B0H.5 SFRSYM    DATA     BIT       T1
      000000B0H   SFRSYM    DATA     BIT       PWM1_
      00000090H   SFRSYM    DATA     BIT       CAP1
      00000090H   SFRSYM    DATA     BIT       T2
      00000086H   SFRSYM    DATA     BYTE      ROM_CTRL
      000000A8H.6 SFRSYM    DATA     BIT       E_DIS
      000000A8H.7 SFRSYM    DATA     BIT       EA
      000000F8H.3 SFRSYM    DATA     BIT       S0_FREE
      000000B0H.1 SFRSYM    DATA     BIT       PWM2_
      00000090H.1 SFRSYM    DATA     BIT       CAP2
      000000F8H.4 SFRSYM    DATA     BIT       S0_IF_BYTE
      00000090H.1 SFRSYM    DATA     BIT       AIN0
      00000090H.4 SFRSYM    DATA     BIT       AIN1
      000000D8H   SFRSYM    DATA     BIT       UIF_BUS_RST
      000000F8H.7 SFRSYM    DATA     BIT       S0_FST_ACT
      00000090H.5 SFRSYM    DATA     BIT       AIN2
      0000009DH   SFRSYM    DATA     BYTE      PWM_CTRL
      000000B0H.2 SFRSYM    DATA     BIT       AIN3
      000000E8H   SFRSYM    DATA     BIT       IE_SPI0
      000000E8H   SFRSYM    DATA     BYTE      IE_EX
      000000FEH   SFRSYM    DATA     BYTE      RESET_KEEP
      000000D8H.7 SFRSYM    DATA     BIT       U_IS_NAK
      000000CEH   SFRSYM    DATA     WORD      T2CAP1
      00000090H.4 SFRSYM    DATA     BIT       UCC1
      00000090H.5 SFRSYM    DATA     BIT       UCC2
      000000A8H   SFRSYM    DATA     BYTE      IE
      000000DDH   SFRSYM    DATA     BYTE      UEP0_T_LEN
      000000E3H   SFRSYM    DATA     BYTE      USB_DEV_AD
      000000D3H   SFRSYM    DATA     BYTE      UEP1_T_LEN
      000000FCH   SFRSYM    DATA     BYTE      SPI0_SETUP
      000000D5H   SFRSYM    DATA     BYTE      UEP2_T_LEN
      000000CCH   SFRSYM    DATA     WORD      T2COUNT
      000000D7H   SFRSYM    DATA     BYTE      UEP3_T_LEN
      000000A2H   SFRSYM    DATA     BYTE      XBUS_AUX
      0000008FH   SFRSYM    DATA     BYTE      ROM_DATA_H
      000000DFH   SFRSYM    DATA     BYTE      UEP4_T_LEN
      00000085H   SFRSYM    DATA     BYTE      ROM_ADDR_H
      000000B8H.7 SFRSYM    DATA     BIT       PH_FLAG
      000000C8H.6 SFRSYM    DATA     BIT       EXF2
      0000008EH   SFRSYM    DATA     BYTE      ROM_DATA_L
      000000E9H   SFRSYM    DATA     BYTE      IP_EX
      00000084H   SFRSYM    DATA     BYTE      ROM_ADDR_L
      000000B8H.6 SFRSYM    DATA     BIT       PL_FLAG
      000000A8H.4 SFRSYM    DATA     BIT       ES
      000000F9H   SFRSYM    DATA     BYTE      SPI0_DATA
      000000B8H   SFRSYM    DATA     BYTE      IP
      000000D8H.5 SFRSYM    DATA     BIT       U_SIE_FREE
      000000D8H.6 SFRSYM    DATA     BIT       U_TOG_OK
      00000098H   SFRSYM    DATA     BIT       RI
      000000B0H.2 SFRSYM    DATA     BIT       INT0
      00000090H   SFRSYM    DATA     BIT       TIN0
      000000D0H.7 SFRSYM    DATA     BIT       CY
      00000098H.1 SFRSYM    DATA     BIT       TI
      000000B0H.3 SFRSYM    DATA     BIT       INT1
      00000090H.1 SFRSYM    DATA     BIT       TIN1
      00000090H.4 SFRSYM    DATA     BIT       TIN2
      000000FFH   SFRSYM    DATA     BYTE      WDOG_COUNT
      00000090H.5 SFRSYM    DATA     BIT       TIN3
      000000C7H   SFRSYM    DATA     BYTE      GPIO_IE
      000000E8H.6 SFRSYM    DATA     BIT       IE_GPIO
      000000B9H   SFRSYM    DATA     BYTE      CLOCK_CFG
      00000090H.6 SFRSYM    DATA     BIT       TIN4
      00000090H.6 SFRSYM    DATA     BIT       RXD1
LX51 LINKER/LOCATER V4.41                                                             12/15/2025  10:37:13  PAGE 50


      00000090H.7 SFRSYM    DATA     BIT       TIN5
      000000E8H.7 SFRSYM    DATA     BIT       IE_WDOG
      000000C2H   SFRSYM    DATA     BYTE      SBAUD1
      000000C0H   SFRSYM    DATA     BIT       U1RI
      0000009CH   SFRSYM    DATA     BYTE      PWM_DATA1
      000000CBH   SFRSYM    DATA     BYTE      RCAP2H
      00000090H.7 SFRSYM    DATA     BIT       TXD1
      0000009BH   SFRSYM    DATA     BYTE      PWM_DATA2
      000000B8H.4 SFRSYM    DATA     BIT       PS
      00000081H   SFRSYM    DATA     BYTE      SP
      000000C0H.1 SFRSYM    DATA     BIT       U1TI
      00000090H.1 SFRSYM    DATA     BIT       T2EX
      000000D8H   SFRSYM    DATA     BYTE      USB_INT_FG
      00000091H   SFRSYM    DATA     BYTE      USB_C_CTRL
      000000D0H.2 SFRSYM    DATA     BIT       OV
      000000CAH   SFRSYM    DATA     BYTE      RCAP2L
      00000090H.5 SFRSYM    DATA     BIT       PWM1
      000000B0H.4 SFRSYM    DATA     BIT       PWM2
      000000C8H.1 SFRSYM    DATA     BIT       C_T2
      000000E1H   SFRSYM    DATA     BYTE      USB_INT_EN
      000000C8H.5 SFRSYM    DATA     BIT       RCLK
      000000E8H.1 SFRSYM    DATA     BIT       IE_TKEY
      000000D8H.1 SFRSYM    DATA     BIT       UIF_TRANSFER
      000000C8H.4 SFRSYM    DATA     BIT       TCLK
      00000080H.7 SFRSYM    DATA     BIT       CMPO
      00000099H   SFRSYM    DATA     BYTE      SBUF
      00000087H   SFRSYM    DATA     BYTE      PCON
      000000DCH   SFRSYM    DATA     BYTE      UEP0_CTRL
      000000D2H   SFRSYM    DATA     BYTE      UEP1_CTRL
      000000D4H   SFRSYM    DATA     BYTE      UEP2_CTRL
      000000FAH   SFRSYM    DATA     BYTE      SPI0_CTRL
      00000098H   SFRSYM    DATA     BYTE      SCON
      000000D6H   SFRSYM    DATA     BYTE      UEP3_CTRL
      00000089H   SFRSYM    DATA     BYTE      TMOD
      00000088H   SFRSYM    DATA     BYTE      TCON
      00000092H   SFRSYM    DATA     BYTE      P1_MOD_OC
      000000DEH   SFRSYM    DATA     BYTE      UEP4_CTRL
      000000DBH   SFRSYM    DATA     BYTE      USB_RX_LEN
      00000096H   SFRSYM    DATA     BYTE      P3_MOD_OC
      000000E8H.3 SFRSYM    DATA     BIT       IE_ADC
      00000080H.5 SFRSYM    DATA     BIT       ADC_IF
      00000080H.4 SFRSYM    DATA     BIT       ADC_START
      00000090H.5 SFRSYM    DATA     BIT       MOSI
      00000090H.6 SFRSYM    DATA     BIT       MISO
      000000C0H.5 SFRSYM    DATA     BIT       U1SMOD
      000000F8H   SFRSYM    DATA     BIT       S0_R_FIFO
      000000F8H   SFRSYM    DATA     BYTE      SPI0_STAT
      000000E8H.5 SFRSYM    DATA     BIT       IE_PWMX
      000000DAH   SFRSYM    DATA     BYTE      USB_MIS_ST
      000000F8H.2 SFRSYM    DATA     BIT       S0_T_FIFO
      00000088H.1 SFRSYM    DATA     BIT       IE0
      000000D9H   SFRSYM    DATA     BYTE      USB_INT_ST
      00000088H.3 SFRSYM    DATA     BIT       IE1
      000000A9H   SFRSYM    DATA     BYTE      WAKE_CTRL
      000000C5H   SFRSYM    DATA     BYTE      TKEY_DATH
      000000F0H   SFRSYM    DATA     BYTE      B
      0000009FH   SFRSYM    DATA     BYTE      ADC_DATA
      000000C8H   SFRSYM    DATA     BIT       CP_RL2
      000000C4H   SFRSYM    DATA     BYTE      TKEY_DATL
      00000093H   SFRSYM    DATA     BYTE      P1_DIR_PU
      000000E0H   SFRSYM    DATA     BYTE      ACC
      00000097H   SFRSYM    DATA     BYTE      P3_DIR_PU
      000000A8H.1 SFRSYM    DATA     BIT       ET0
      00000088H.5 SFRSYM    DATA     BIT       TF0
      000000A8H.3 SFRSYM    DATA     BIT       ET1
LX51 LINKER/LOCATER V4.41                                                             12/15/2025  10:37:13  PAGE 51


      00000088H.7 SFRSYM    DATA     BIT       TF1
      000000A8H.5 SFRSYM    DATA     BIT       ET2
      000000D1H   SFRSYM    DATA     BYTE      UDEV_CTRL
      000000C8H.7 SFRSYM    DATA     BIT       CAP1F
      000000C8H.7 SFRSYM    DATA     BIT       TF2
      00000098H.2 SFRSYM    DATA     BIT       RB8
      0000008CH   SFRSYM    DATA     BYTE      TH0
      0000008DH   SFRSYM    DATA     BYTE      TH1
      00000088H   SFRSYM    DATA     BIT       IT0
      000000A8H   SFRSYM    DATA     BIT       EX0
      000000ECH   SFRSYM    DATA     WORD      UEP0_DMA
      000000CDH   SFRSYM    DATA     BYTE      TH2
      00000098H.3 SFRSYM    DATA     BIT       TB8
      00000088H.2 SFRSYM    DATA     BIT       IT1
      00000090H.2 SFRSYM    DATA     BIT       RXD_
      000000A8H.2 SFRSYM    DATA     BIT       EX1
      000000EEH   SFRSYM    DATA     WORD      UEP1_DMA
      000000D0H   SFRSYM    DATA     BIT       P
      000000E4H   SFRSYM    DATA     WORD      UEP2_DMA
      00000080H.6 SFRSYM    DATA     BIT       CMP_IF
      00000098H.7 SFRSYM    DATA     BIT       SM0
      0000008AH   SFRSYM    DATA     BYTE      TL0
      00000090H.3 SFRSYM    DATA     BIT       TXD_
      000000E6H   SFRSYM    DATA     WORD      UEP3_DMA
      00000098H.6 SFRSYM    DATA     BIT       SM1
      0000008BH   SFRSYM    DATA     BYTE      TL1
      000000CCH   SFRSYM    DATA     BYTE      TL2
      00000098H.5 SFRSYM    DATA     BIT       SM2
      000000C0H.2 SFRSYM    DATA     BIT       U1RB8
      000000B8H.1 SFRSYM    DATA     BIT       PT0
      000000C3H   SFRSYM    DATA     BYTE      TKEY_CTRL
      000000C0H.3 SFRSYM    DATA     BIT       U1TB8
      000000CFH   SFRSYM    DATA     BYTE      T2CAP1H
      000000B8H.3 SFRSYM    DATA     BIT       PT1
      000000D0H.3 SFRSYM    DATA     BIT       RS0
      00000088H.4 SFRSYM    DATA     BIT       TR0
      000000B8H.5 SFRSYM    DATA     BIT       PT2
      000000D0H.4 SFRSYM    DATA     BIT       RS1
      000000C0H.7 SFRSYM    DATA     BIT       U1SM0
      00000088H.6 SFRSYM    DATA     BIT       TR1
      000000C8H.2 SFRSYM    DATA     BIT       TR2
      000000B8H   SFRSYM    DATA     BIT       PX0
      000000CEH   SFRSYM    DATA     BYTE      T2CAP1L
      000000CAH   SFRSYM    DATA     WORD      RCAP2
      000000E8H.2 SFRSYM    DATA     BIT       IE_USB
      000000B8H.2 SFRSYM    DATA     BIT       PX1
      00000080H.3 SFRSYM    DATA     BIT       CMP_CHAN
      0000009EH   SFRSYM    DATA     BYTE      PWM_CK_SE
      00000083H   SFRSYM    DATA     BYTE      DPH
      000000F8H.5 SFRSYM    DATA     BIT       S0_IF_FIRST
      000000E8H.4 SFRSYM    DATA     BIT       IE_UART1
      00000080H   SFRSYM    DATA     BYTE      ADC_CTRL
      00000082H   SFRSYM    DATA     BYTE      DPL
      00000090H.7 SFRSYM    DATA     BIT       SCK
      000000A1H   SFRSYM    DATA     BYTE      SAFE_MOD
      000000C1H   SFRSYM    DATA     BYTE      SBUF1
      000000C8H.3 SFRSYM    DATA     BIT       EXEN2
      000000B1H   SFRSYM    DATA     BYTE      GLOBAL_CFG
      000000C0H   SFRSYM    DATA     BYTE      SCON1
      00000098H.4 SFRSYM    DATA     BIT       REN
      00000090H.4 SFRSYM    DATA     BIT       CAP1_
      00000090H.4 SFRSYM    DATA     BIT       T2_
      000000B0H.7 SFRSYM    DATA     BIT       UDM
      000000C9H   SFRSYM    DATA     BYTE      T2MOD
      000000C8H   SFRSYM    DATA     BYTE      T2CON
LX51 LINKER/LOCATER V4.41                                                             12/15/2025  10:37:13  PAGE 52


      000000B0H.6 SFRSYM    DATA     BIT       UDP
      00000090H.4 SFRSYM    DATA     BIT       SCS
      000000D8H.2 SFRSYM    DATA     BIT       UIF_SUSPEND
      0000008EH   SFRSYM    DATA     WORD      ROM_DATA
      00000084H   SFRSYM    DATA     WORD      ROM_ADDR
      000000C0H.4 SFRSYM    DATA     BIT       U1REN
      000000B0H   SFRSYM    DATA     BIT       RXD
      000000D8H.4 SFRSYM    DATA     BIT       UIF_FIFO_OV
      000000B0H.1 SFRSYM    DATA     BIT       TXD
      000000EBH   SFRSYM    DATA     BYTE      UEP2_3_MOD
      000000EAH   SFRSYM    DATA     BYTE      UEP4_1_MOD
      000000B0H.2 SFRSYM    DATA     BIT       VBUS1
      00000090H.1 SFRSYM    DATA     BIT       VBUS2
      00000080H   SFRSYM    DATA     BIT       ADC_CHAN0
      00000080H.1 SFRSYM    DATA     BIT       ADC_CHAN1
      000000C6H   SFRSYM    DATA     BYTE      PIN_FUNC
      000000D0H.5 SFRSYM    DATA     BIT       F0
      000000EDH   SFRSYM    DATA     BYTE      UEP0_DMA_H
      000000D0H.1 SFRSYM    DATA     BIT       F1
      000000EFH   SFRSYM    DATA     BYTE      UEP1_DMA_H
      000000E5H   SFRSYM    DATA     BYTE      UEP2_DMA_H
      000000C4H   SFRSYM    DATA     WORD      TKEY_DAT
      000000F8H.6 SFRSYM    DATA     BIT       S0_IF_OV
      000000E7H   SFRSYM    DATA     BYTE      UEP3_DMA_H
      0000009AH   SFRSYM    DATA     BYTE      ADC_CFG
      000000ECH   SFRSYM    DATA     BYTE      UEP0_DMA_L
      000000D0H   SFRSYM    DATA     BYTE      PSW
      000000EEH   SFRSYM    DATA     BYTE      UEP1_DMA_L
      000000E4H   SFRSYM    DATA     BYTE      UEP2_DMA_L
      000000E6H   SFRSYM    DATA     BYTE      UEP3_DMA_L

      01001A6BH   BLOCK     CODE     ---       LVL=0
      02000154H   SYMBOL    XDATA    WORD      Addr
      00000001H   SYMBOL    DATA     ---       Data
      02000159H   SYMBOL    XDATA    WORD      lenght
      01001A73H   BLOCK     CODE     NEAR LAB  LVL=1
      00000008H   SYMBOL    DATA     BYTE      i
      00000001H   SYMBOL    DATA     ---       Pointer
      ---         BLOCKEND  ---      ---       LVL=1
      01001A6BH   LINE      CODE     ---       #6
      01001A73H   LINE      CODE     ---       #7
      01001A73H   LINE      CODE     ---       #10
      01001A76H   LINE      CODE     ---       #11
      01001A79H   LINE      CODE     ---       #12
      01001A7CH   LINE      CODE     ---       #13
      01001A7CH   LINE      CODE     ---       #14
      01001A8EH   LINE      CODE     ---       #15
      01001A8EH   LINE      CODE     ---       #16
      01001A9AH   LINE      CODE     ---       #17
      01001AABH   LINE      CODE     ---       #18
      01001AAEH   LINE      CODE     ---       #19
      01001AB8H   LINE      CODE     ---       #20
      01001ABFH   LINE      CODE     ---       #21
      01001AC3H   LINE      CODE     ---       #22
      01001AC6H   LINE      CODE     ---       #23
      01001AC9H   LINE      CODE     ---       #24
      01001ACCH   LINE      CODE     ---       #25
      ---         BLOCKEND  ---      ---       LVL=0

      ---         MODULE    ---      ---       ADC
      00000025H   PUBLIC    IDATA    BYTE      ADC_Value
      010007EBH   PUBLIC    CODE     ---       ADC_Interrupt
      01001DA0H   PUBLIC    CODE     ---       ADC_Init
      000000D8H.3 SFRSYM    DATA     BIT       UIF_HST_SOF
      000000B0H.4 SFRSYM    DATA     BIT       RXD1_
LX51 LINKER/LOCATER V4.41                                                             12/15/2025  10:37:13  PAGE 53


      000000D8H   SFRSYM    DATA     BIT       UIF_DETECT
      00000090H   SFRSYM    DATA     BYTE      P1
      000000E2H   SFRSYM    DATA     BYTE      USB_CTRL
      000000B0H.2 SFRSYM    DATA     BIT       TXD1_
      000000A0H   SFRSYM    DATA     BYTE      P2
      000000B0H   SFRSYM    DATA     BYTE      P3
      000000B0H.4 SFRSYM    DATA     BIT       T0
      000000D0H.6 SFRSYM    DATA     BIT       AC
      000000FBH   SFRSYM    DATA     BYTE      SPI0_CK_SE
      000000B0H.5 SFRSYM    DATA     BIT       T1
      000000B0H   SFRSYM    DATA     BIT       PWM1_
      00000090H   SFRSYM    DATA     BIT       CAP1
      00000090H   SFRSYM    DATA     BIT       T2
      00000086H   SFRSYM    DATA     BYTE      ROM_CTRL
      000000A8H.6 SFRSYM    DATA     BIT       E_DIS
      000000A8H.7 SFRSYM    DATA     BIT       EA
      000000F8H.3 SFRSYM    DATA     BIT       S0_FREE
      000000B0H.1 SFRSYM    DATA     BIT       PWM2_
      00000090H.1 SFRSYM    DATA     BIT       CAP2
      000000F8H.4 SFRSYM    DATA     BIT       S0_IF_BYTE
      00000090H.1 SFRSYM    DATA     BIT       AIN0
      00000090H.4 SFRSYM    DATA     BIT       AIN1
      000000D8H   SFRSYM    DATA     BIT       UIF_BUS_RST
      000000F8H.7 SFRSYM    DATA     BIT       S0_FST_ACT
      00000090H.5 SFRSYM    DATA     BIT       AIN2
      0000009DH   SFRSYM    DATA     BYTE      PWM_CTRL
      000000B0H.2 SFRSYM    DATA     BIT       AIN3
      000000E8H   SFRSYM    DATA     BIT       IE_SPI0
      000000E8H   SFRSYM    DATA     BYTE      IE_EX
      000000FEH   SFRSYM    DATA     BYTE      RESET_KEEP
      000000D8H.7 SFRSYM    DATA     BIT       U_IS_NAK
      000000CEH   SFRSYM    DATA     WORD      T2CAP1
      00000090H.4 SFRSYM    DATA     BIT       UCC1
      00000090H.5 SFRSYM    DATA     BIT       UCC2
      000000A8H   SFRSYM    DATA     BYTE      IE
      000000DDH   SFRSYM    DATA     BYTE      UEP0_T_LEN
      000000E3H   SFRSYM    DATA     BYTE      USB_DEV_AD
      000000D3H   SFRSYM    DATA     BYTE      UEP1_T_LEN
      000000FCH   SFRSYM    DATA     BYTE      SPI0_SETUP
      000000D5H   SFRSYM    DATA     BYTE      UEP2_T_LEN
      000000CCH   SFRSYM    DATA     WORD      T2COUNT
      000000D7H   SFRSYM    DATA     BYTE      UEP3_T_LEN
      000000A2H   SFRSYM    DATA     BYTE      XBUS_AUX
      0000008FH   SFRSYM    DATA     BYTE      ROM_DATA_H
      000000DFH   SFRSYM    DATA     BYTE      UEP4_T_LEN
      00000085H   SFRSYM    DATA     BYTE      ROM_ADDR_H
      000000B8H.7 SFRSYM    DATA     BIT       PH_FLAG
      000000C8H.6 SFRSYM    DATA     BIT       EXF2
      0000008EH   SFRSYM    DATA     BYTE      ROM_DATA_L
      000000E9H   SFRSYM    DATA     BYTE      IP_EX
      00000084H   SFRSYM    DATA     BYTE      ROM_ADDR_L
      000000B8H.6 SFRSYM    DATA     BIT       PL_FLAG
      000000A8H.4 SFRSYM    DATA     BIT       ES
      000000F9H   SFRSYM    DATA     BYTE      SPI0_DATA
      000000B8H   SFRSYM    DATA     BYTE      IP
      000000D8H.5 SFRSYM    DATA     BIT       U_SIE_FREE
      000000D8H.6 SFRSYM    DATA     BIT       U_TOG_OK
      00000098H   SFRSYM    DATA     BIT       RI
      000000B0H.2 SFRSYM    DATA     BIT       INT0
      00000090H   SFRSYM    DATA     BIT       TIN0
      000000D0H.7 SFRSYM    DATA     BIT       CY
      00000098H.1 SFRSYM    DATA     BIT       TI
      000000B0H.3 SFRSYM    DATA     BIT       INT1
      00000090H.1 SFRSYM    DATA     BIT       TIN1
      00000090H.4 SFRSYM    DATA     BIT       TIN2
LX51 LINKER/LOCATER V4.41                                                             12/15/2025  10:37:13  PAGE 54


      000000FFH   SFRSYM    DATA     BYTE      WDOG_COUNT
      00000090H.5 SFRSYM    DATA     BIT       TIN3
      000000C7H   SFRSYM    DATA     BYTE      GPIO_IE
      000000E8H.6 SFRSYM    DATA     BIT       IE_GPIO
      000000B9H   SFRSYM    DATA     BYTE      CLOCK_CFG
      00000090H.6 SFRSYM    DATA     BIT       TIN4
      00000090H.6 SFRSYM    DATA     BIT       RXD1
      00000090H.7 SFRSYM    DATA     BIT       TIN5
      000000E8H.7 SFRSYM    DATA     BIT       IE_WDOG
      000000C2H   SFRSYM    DATA     BYTE      SBAUD1
      000000C0H   SFRSYM    DATA     BIT       U1RI
      0000009CH   SFRSYM    DATA     BYTE      PWM_DATA1
      000000CBH   SFRSYM    DATA     BYTE      RCAP2H
      00000090H.7 SFRSYM    DATA     BIT       TXD1
      0000009BH   SFRSYM    DATA     BYTE      PWM_DATA2
      000000B8H.4 SFRSYM    DATA     BIT       PS
      00000081H   SFRSYM    DATA     BYTE      SP
      000000C0H.1 SFRSYM    DATA     BIT       U1TI
      00000090H.1 SFRSYM    DATA     BIT       T2EX
      000000D8H   SFRSYM    DATA     BYTE      USB_INT_FG
      00000091H   SFRSYM    DATA     BYTE      USB_C_CTRL
      000000D0H.2 SFRSYM    DATA     BIT       OV
      000000CAH   SFRSYM    DATA     BYTE      RCAP2L
      00000090H.5 SFRSYM    DATA     BIT       PWM1
      000000B0H.4 SFRSYM    DATA     BIT       PWM2
      000000C8H.1 SFRSYM    DATA     BIT       C_T2
      000000E1H   SFRSYM    DATA     BYTE      USB_INT_EN
      000000C8H.5 SFRSYM    DATA     BIT       RCLK
      000000E8H.1 SFRSYM    DATA     BIT       IE_TKEY
      000000D8H.1 SFRSYM    DATA     BIT       UIF_TRANSFER
      000000C8H.4 SFRSYM    DATA     BIT       TCLK
      00000080H.7 SFRSYM    DATA     BIT       CMPO
      00000099H   SFRSYM    DATA     BYTE      SBUF
      00000087H   SFRSYM    DATA     BYTE      PCON
      000000DCH   SFRSYM    DATA     BYTE      UEP0_CTRL
      000000D2H   SFRSYM    DATA     BYTE      UEP1_CTRL
      000000D4H   SFRSYM    DATA     BYTE      UEP2_CTRL
      000000FAH   SFRSYM    DATA     BYTE      SPI0_CTRL
      00000098H   SFRSYM    DATA     BYTE      SCON
      000000D6H   SFRSYM    DATA     BYTE      UEP3_CTRL
      00000089H   SFRSYM    DATA     BYTE      TMOD
      00000088H   SFRSYM    DATA     BYTE      TCON
      00000092H   SFRSYM    DATA     BYTE      P1_MOD_OC
      000000DEH   SFRSYM    DATA     BYTE      UEP4_CTRL
      000000DBH   SFRSYM    DATA     BYTE      USB_RX_LEN
      00000096H   SFRSYM    DATA     BYTE      P3_MOD_OC
      000000E8H.3 SFRSYM    DATA     BIT       IE_ADC
      00000080H.5 SFRSYM    DATA     BIT       ADC_IF
      00000080H.4 SFRSYM    DATA     BIT       ADC_START
      00000090H.5 SFRSYM    DATA     BIT       MOSI
      00000090H.6 SFRSYM    DATA     BIT       MISO
      000000C0H.5 SFRSYM    DATA     BIT       U1SMOD
      000000F8H   SFRSYM    DATA     BIT       S0_R_FIFO
      000000F8H   SFRSYM    DATA     BYTE      SPI0_STAT
      000000E8H.5 SFRSYM    DATA     BIT       IE_PWMX
      000000DAH   SFRSYM    DATA     BYTE      USB_MIS_ST
      000000F8H.2 SFRSYM    DATA     BIT       S0_T_FIFO
      00000088H.1 SFRSYM    DATA     BIT       IE0
      000000D9H   SFRSYM    DATA     BYTE      USB_INT_ST
      00000088H.3 SFRSYM    DATA     BIT       IE1
      000000A9H   SFRSYM    DATA     BYTE      WAKE_CTRL
      000000C5H   SFRSYM    DATA     BYTE      TKEY_DATH
      000000F0H   SFRSYM    DATA     BYTE      B
      0000009FH   SFRSYM    DATA     BYTE      ADC_DATA
      000000C8H   SFRSYM    DATA     BIT       CP_RL2
LX51 LINKER/LOCATER V4.41                                                             12/15/2025  10:37:13  PAGE 55


      000000C4H   SFRSYM    DATA     BYTE      TKEY_DATL
      00000093H   SFRSYM    DATA     BYTE      P1_DIR_PU
      000000E0H   SFRSYM    DATA     BYTE      ACC
      00000097H   SFRSYM    DATA     BYTE      P3_DIR_PU
      000000A8H.1 SFRSYM    DATA     BIT       ET0
      00000088H.5 SFRSYM    DATA     BIT       TF0
      000000A8H.3 SFRSYM    DATA     BIT       ET1
      00000088H.7 SFRSYM    DATA     BIT       TF1
      000000A8H.5 SFRSYM    DATA     BIT       ET2
      000000D1H   SFRSYM    DATA     BYTE      UDEV_CTRL
      000000C8H.7 SFRSYM    DATA     BIT       CAP1F
      000000C8H.7 SFRSYM    DATA     BIT       TF2
      00000098H.2 SFRSYM    DATA     BIT       RB8
      0000008CH   SFRSYM    DATA     BYTE      TH0
      0000008DH   SFRSYM    DATA     BYTE      TH1
      00000088H   SFRSYM    DATA     BIT       IT0
      000000A8H   SFRSYM    DATA     BIT       EX0
      000000ECH   SFRSYM    DATA     WORD      UEP0_DMA
      000000CDH   SFRSYM    DATA     BYTE      TH2
      00000098H.3 SFRSYM    DATA     BIT       TB8
      00000088H.2 SFRSYM    DATA     BIT       IT1
      00000090H.2 SFRSYM    DATA     BIT       RXD_
      000000A8H.2 SFRSYM    DATA     BIT       EX1
      000000EEH   SFRSYM    DATA     WORD      UEP1_DMA
      000000D0H   SFRSYM    DATA     BIT       P
      000000E4H   SFRSYM    DATA     WORD      UEP2_DMA
      00000080H.6 SFRSYM    DATA     BIT       CMP_IF
      00000098H.7 SFRSYM    DATA     BIT       SM0
      0000008AH   SFRSYM    DATA     BYTE      TL0
      00000090H.3 SFRSYM    DATA     BIT       TXD_
      000000E6H   SFRSYM    DATA     WORD      UEP3_DMA
      00000098H.6 SFRSYM    DATA     BIT       SM1
      0000008BH   SFRSYM    DATA     BYTE      TL1
      000000CCH   SFRSYM    DATA     BYTE      TL2
      00000098H.5 SFRSYM    DATA     BIT       SM2
      000000C0H.2 SFRSYM    DATA     BIT       U1RB8
      000000B8H.1 SFRSYM    DATA     BIT       PT0
      000000C3H   SFRSYM    DATA     BYTE      TKEY_CTRL
      000000C0H.3 SFRSYM    DATA     BIT       U1TB8
      000000CFH   SFRSYM    DATA     BYTE      T2CAP1H
      000000B8H.3 SFRSYM    DATA     BIT       PT1
      000000D0H.3 SFRSYM    DATA     BIT       RS0
      00000088H.4 SFRSYM    DATA     BIT       TR0
      000000B8H.5 SFRSYM    DATA     BIT       PT2
      000000D0H.4 SFRSYM    DATA     BIT       RS1
      000000C0H.7 SFRSYM    DATA     BIT       U1SM0
      00000088H.6 SFRSYM    DATA     BIT       TR1
      000000C8H.2 SFRSYM    DATA     BIT       TR2
      000000B8H   SFRSYM    DATA     BIT       PX0
      000000CEH   SFRSYM    DATA     BYTE      T2CAP1L
      000000CAH   SFRSYM    DATA     WORD      RCAP2
      000000E8H.2 SFRSYM    DATA     BIT       IE_USB
      000000B8H.2 SFRSYM    DATA     BIT       PX1
      00000080H.3 SFRSYM    DATA     BIT       CMP_CHAN
      0000009EH   SFRSYM    DATA     BYTE      PWM_CK_SE
      00000083H   SFRSYM    DATA     BYTE      DPH
      000000F8H.5 SFRSYM    DATA     BIT       S0_IF_FIRST
      000000E8H.4 SFRSYM    DATA     BIT       IE_UART1
      00000080H   SFRSYM    DATA     BYTE      ADC_CTRL
      00000082H   SFRSYM    DATA     BYTE      DPL
      00000090H.7 SFRSYM    DATA     BIT       SCK
      000000A1H   SFRSYM    DATA     BYTE      SAFE_MOD
      000000C1H   SFRSYM    DATA     BYTE      SBUF1
      000000C8H.3 SFRSYM    DATA     BIT       EXEN2
      000000B1H   SFRSYM    DATA     BYTE      GLOBAL_CFG
LX51 LINKER/LOCATER V4.41                                                             12/15/2025  10:37:13  PAGE 56


      000000C0H   SFRSYM    DATA     BYTE      SCON1
      00000098H.4 SFRSYM    DATA     BIT       REN
      00000090H.4 SFRSYM    DATA     BIT       CAP1_
      00000090H.4 SFRSYM    DATA     BIT       T2_
      000000B0H.7 SFRSYM    DATA     BIT       UDM
      000000C9H   SFRSYM    DATA     BYTE      T2MOD
      000000C8H   SFRSYM    DATA     BYTE      T2CON
      000000B0H.6 SFRSYM    DATA     BIT       UDP
      00000090H.4 SFRSYM    DATA     BIT       SCS
      000000D8H.2 SFRSYM    DATA     BIT       UIF_SUSPEND
      0000008EH   SFRSYM    DATA     WORD      ROM_DATA
      00000084H   SFRSYM    DATA     WORD      ROM_ADDR
      000000C0H.4 SFRSYM    DATA     BIT       U1REN
      000000B0H   SFRSYM    DATA     BIT       RXD
      000000D8H.4 SFRSYM    DATA     BIT       UIF_FIFO_OV
      000000B0H.1 SFRSYM    DATA     BIT       TXD
      000000EBH   SFRSYM    DATA     BYTE      UEP2_3_MOD
      000000EAH   SFRSYM    DATA     BYTE      UEP4_1_MOD
      000000B0H.2 SFRSYM    DATA     BIT       VBUS1
      00000090H.1 SFRSYM    DATA     BIT       VBUS2
      00000080H   SFRSYM    DATA     BIT       ADC_CHAN0
      00000080H.1 SFRSYM    DATA     BIT       ADC_CHAN1
      000000C6H   SFRSYM    DATA     BYTE      PIN_FUNC
      000000D0H.5 SFRSYM    DATA     BIT       F0
      000000EDH   SFRSYM    DATA     BYTE      UEP0_DMA_H
      000000D0H.1 SFRSYM    DATA     BIT       F1
      000000EFH   SFRSYM    DATA     BYTE      UEP1_DMA_H
      000000E5H   SFRSYM    DATA     BYTE      UEP2_DMA_H
      000000C4H   SFRSYM    DATA     WORD      TKEY_DAT
      000000F8H.6 SFRSYM    DATA     BIT       S0_IF_OV
      000000E7H   SFRSYM    DATA     BYTE      UEP3_DMA_H
      0000009AH   SFRSYM    DATA     BYTE      ADC_CFG
      000000ECH   SFRSYM    DATA     BYTE      UEP0_DMA_L
      000000D0H   SFRSYM    DATA     BYTE      PSW
      000000EEH   SFRSYM    DATA     BYTE      UEP1_DMA_L
      000000E4H   SFRSYM    DATA     BYTE      UEP2_DMA_L
      000000E6H   SFRSYM    DATA     BYTE      UEP3_DMA_L

      01001DA0H   BLOCK     CODE     ---       LVL=0
      01001DA0H   LINE      CODE     ---       #3
      01001DA0H   LINE      CODE     ---       #4
      01001DA0H   LINE      CODE     ---       #5
      01001DA3H   LINE      CODE     ---       #6
      01001DA6H   LINE      CODE     ---       #7
      01001DA8H   LINE      CODE     ---       #8
      01001DAAH   LINE      CODE     ---       #9
      01001DACH   LINE      CODE     ---       #10
      01001DAEH   LINE      CODE     ---       #11
      01001DB0H   LINE      CODE     ---       #12
      ---         BLOCKEND  ---      ---       LVL=0

      010007EBH   BLOCK     CODE     ---       LVL=0
      010007EBH   LINE      CODE     ---       #13
      010007F0H   LINE      CODE     ---       #15
      010007F2H   LINE      CODE     ---       #16
      010007F4H   LINE      CODE     ---       #17
      010007F8H   LINE      CODE     ---       #18
      ---         BLOCKEND  ---      ---       LVL=0

      ---         MODULE    ---      ---       EFFECT_RGBDANCE
      02000164H   PUBLIC    XDATA    WORD      Time_Color
      02000163H   PUBLIC    XDATA    BYTE      _FlagMusic
      02000162H   PUBLIC    XDATA    BYTE      _Flag_color
      02000161H   PUBLIC    XDATA    BYTE      _FlagFade
      02000160H   PUBLIC    XDATA    BYTE      Step_Duty
LX51 LINKER/LOCATER V4.41                                                             12/15/2025  10:37:13  PAGE 57


      0200015EH   PUBLIC    XDATA    WORD      Time_Wait
      0200015CH   PUBLIC    XDATA    WORD      _Flagcount
      0200015BH   PUBLIC    XDATA    BYTE      Step_Color
      0100164EH   PUBLIC    CODE     ---       _EFFECT_MoveColor2
      010014DAH   PUBLIC    CODE     ---       _EFFECT_MoveColor
      000000D8H.3 SFRSYM    DATA     BIT       UIF_HST_SOF
      000000B0H.4 SFRSYM    DATA     BIT       RXD1_
      000000D8H   SFRSYM    DATA     BIT       UIF_DETECT
      00000090H   SFRSYM    DATA     BYTE      P1
      000000E2H   SFRSYM    DATA     BYTE      USB_CTRL
      000000B0H.2 SFRSYM    DATA     BIT       TXD1_
      000000A0H   SFRSYM    DATA     BYTE      P2
      000000B0H   SFRSYM    DATA     BYTE      P3
      00000090H   SFRSYM    DATA     BIT       GPIO_GREEN
      000000B0H.4 SFRSYM    DATA     BIT       T0
      000000D0H.6 SFRSYM    DATA     BIT       AC
      000000FBH   SFRSYM    DATA     BYTE      SPI0_CK_SE
      000000B0H.5 SFRSYM    DATA     BIT       T1
      000000B0H   SFRSYM    DATA     BIT       PWM1_
      00000090H   SFRSYM    DATA     BIT       CAP1
      00000090H   SFRSYM    DATA     BIT       T2
      00000086H   SFRSYM    DATA     BYTE      ROM_CTRL
      000000A8H.6 SFRSYM    DATA     BIT       E_DIS
      000000A8H.7 SFRSYM    DATA     BIT       EA
      000000F8H.3 SFRSYM    DATA     BIT       S0_FREE
      000000B0H.1 SFRSYM    DATA     BIT       PWM2_
      00000090H.1 SFRSYM    DATA     BIT       CAP2
      000000F8H.4 SFRSYM    DATA     BIT       S0_IF_BYTE
      00000090H.1 SFRSYM    DATA     BIT       AIN0
      00000090H.4 SFRSYM    DATA     BIT       AIN1
      000000D8H   SFRSYM    DATA     BIT       UIF_BUS_RST
      000000F8H.7 SFRSYM    DATA     BIT       S0_FST_ACT
      00000090H.5 SFRSYM    DATA     BIT       AIN2
      0000009DH   SFRSYM    DATA     BYTE      PWM_CTRL
      000000B0H.2 SFRSYM    DATA     BIT       AIN3
      000000E8H   SFRSYM    DATA     BIT       IE_SPI0
      000000E8H   SFRSYM    DATA     BYTE      IE_EX
      000000FEH   SFRSYM    DATA     BYTE      RESET_KEEP
      000000D8H.7 SFRSYM    DATA     BIT       U_IS_NAK
      000000CEH   SFRSYM    DATA     WORD      T2CAP1
      00000090H.4 SFRSYM    DATA     BIT       UCC1
      00000090H.5 SFRSYM    DATA     BIT       UCC2
      000000A8H   SFRSYM    DATA     BYTE      IE
      000000DDH   SFRSYM    DATA     BYTE      UEP0_T_LEN
      000000E3H   SFRSYM    DATA     BYTE      USB_DEV_AD
      000000D3H   SFRSYM    DATA     BYTE      UEP1_T_LEN
      000000FCH   SFRSYM    DATA     BYTE      SPI0_SETUP
      000000D5H   SFRSYM    DATA     BYTE      UEP2_T_LEN
      000000CCH   SFRSYM    DATA     WORD      T2COUNT
      000000D7H   SFRSYM    DATA     BYTE      UEP3_T_LEN
      000000A2H   SFRSYM    DATA     BYTE      XBUS_AUX
      0000008FH   SFRSYM    DATA     BYTE      ROM_DATA_H
      000000B0H.3 SFRSYM    DATA     BIT       BUT_DON_DA
      000000DFH   SFRSYM    DATA     BYTE      UEP4_T_LEN
      00000085H   SFRSYM    DATA     BYTE      ROM_ADDR_H
      000000B8H.7 SFRSYM    DATA     BIT       PH_FLAG
      000000C8H.6 SFRSYM    DATA     BIT       EXF2
      0000008EH   SFRSYM    DATA     BYTE      ROM_DATA_L
      000000E9H   SFRSYM    DATA     BYTE      IP_EX
      00000084H   SFRSYM    DATA     BYTE      ROM_ADDR_L
      000000B8H.6 SFRSYM    DATA     BIT       PL_FLAG
      000000A8H.4 SFRSYM    DATA     BIT       ES
      000000F9H   SFRSYM    DATA     BYTE      SPI0_DATA
      000000B8H   SFRSYM    DATA     BYTE      IP
      000000D8H.5 SFRSYM    DATA     BIT       U_SIE_FREE
LX51 LINKER/LOCATER V4.41                                                             12/15/2025  10:37:13  PAGE 58


      000000D8H.6 SFRSYM    DATA     BIT       U_TOG_OK
      00000098H   SFRSYM    DATA     BIT       RI
      000000B0H.2 SFRSYM    DATA     BIT       INT0
      00000090H   SFRSYM    DATA     BIT       TIN0
      000000D0H.7 SFRSYM    DATA     BIT       CY
      00000098H.1 SFRSYM    DATA     BIT       TI
      000000B0H.3 SFRSYM    DATA     BIT       INT1
      00000090H.1 SFRSYM    DATA     BIT       TIN1
      00000090H.4 SFRSYM    DATA     BIT       TIN2
      000000FFH   SFRSYM    DATA     BYTE      WDOG_COUNT
      00000090H.5 SFRSYM    DATA     BIT       TIN3
      000000C7H   SFRSYM    DATA     BYTE      GPIO_IE
      000000E8H.6 SFRSYM    DATA     BIT       IE_GPIO
      000000B9H   SFRSYM    DATA     BYTE      CLOCK_CFG
      00000090H.6 SFRSYM    DATA     BIT       TIN4
      00000090H.6 SFRSYM    DATA     BIT       RXD1
      00000090H.7 SFRSYM    DATA     BIT       TIN5
      000000E8H.7 SFRSYM    DATA     BIT       IE_WDOG
      000000C2H   SFRSYM    DATA     BYTE      SBAUD1
      000000C0H   SFRSYM    DATA     BIT       U1RI
      0000009CH   SFRSYM    DATA     BYTE      PWM_DATA1
      000000CBH   SFRSYM    DATA     BYTE      RCAP2H
      00000090H.7 SFRSYM    DATA     BIT       TXD1
      0000009BH   SFRSYM    DATA     BYTE      PWM_DATA2
      000000B8H.4 SFRSYM    DATA     BIT       PS
      00000081H   SFRSYM    DATA     BYTE      SP
      000000C0H.1 SFRSYM    DATA     BIT       U1TI
      00000090H.1 SFRSYM    DATA     BIT       T2EX
      000000D8H   SFRSYM    DATA     BYTE      USB_INT_FG
      00000091H   SFRSYM    DATA     BYTE      USB_C_CTRL
      000000D0H.2 SFRSYM    DATA     BIT       OV
      000000CAH   SFRSYM    DATA     BYTE      RCAP2L
      00000090H.5 SFRSYM    DATA     BIT       PWM1
      000000B0H.4 SFRSYM    DATA     BIT       PWM2
      000000C8H.1 SFRSYM    DATA     BIT       C_T2
      000000B0H.5 SFRSYM    DATA     BIT       LED7_DATA_A
      00000090H.5 SFRSYM    DATA     BIT       LED7_DATA_B
      000000E1H   SFRSYM    DATA     BYTE      USB_INT_EN
      00000090H.6 SFRSYM    DATA     BIT       LED7_DATA_C
      00000090H.4 SFRSYM    DATA     BIT       LED7_DATA_D
      000000C8H.5 SFRSYM    DATA     BIT       RCLK
      000000E8H.1 SFRSYM    DATA     BIT       IE_TKEY
      000000B0H.2 SFRSYM    DATA     BIT       LED7_DATA_E
      000000D8H.1 SFRSYM    DATA     BIT       UIF_TRANSFER
      00000090H.3 SFRSYM    DATA     BIT       LED7_DATA_F
      000000C8H.4 SFRSYM    DATA     BIT       TCLK
      00000090H.2 SFRSYM    DATA     BIT       LED7_DATA_G
      00000080H.7 SFRSYM    DATA     BIT       CMPO
      00000099H   SFRSYM    DATA     BYTE      SBUF
      00000087H   SFRSYM    DATA     BYTE      PCON
      000000DCH   SFRSYM    DATA     BYTE      UEP0_CTRL
      000000D2H   SFRSYM    DATA     BYTE      UEP1_CTRL
      000000D4H   SFRSYM    DATA     BYTE      UEP2_CTRL
      000000FAH   SFRSYM    DATA     BYTE      SPI0_CTRL
      00000098H   SFRSYM    DATA     BYTE      SCON
      000000D6H   SFRSYM    DATA     BYTE      UEP3_CTRL
      00000089H   SFRSYM    DATA     BYTE      TMOD
      00000088H   SFRSYM    DATA     BYTE      TCON
      00000092H   SFRSYM    DATA     BYTE      P1_MOD_OC
      000000DEH   SFRSYM    DATA     BYTE      UEP4_CTRL
      000000DBH   SFRSYM    DATA     BYTE      USB_RX_LEN
      00000096H   SFRSYM    DATA     BYTE      P3_MOD_OC
      000000E8H.3 SFRSYM    DATA     BIT       IE_ADC
      00000080H.5 SFRSYM    DATA     BIT       ADC_IF
      00000080H.4 SFRSYM    DATA     BIT       ADC_START
LX51 LINKER/LOCATER V4.41                                                             12/15/2025  10:37:13  PAGE 59


      00000090H.5 SFRSYM    DATA     BIT       MOSI
      00000090H.6 SFRSYM    DATA     BIT       MISO
      000000B0H.1 SFRSYM    DATA     BIT       GPIO_BLUE
      000000C0H.5 SFRSYM    DATA     BIT       U1SMOD
      000000F8H   SFRSYM    DATA     BIT       S0_R_FIFO
      000000F8H   SFRSYM    DATA     BYTE      SPI0_STAT
      000000E8H.5 SFRSYM    DATA     BIT       IE_PWMX
      000000DAH   SFRSYM    DATA     BYTE      USB_MIS_ST
      000000F8H.2 SFRSYM    DATA     BIT       S0_T_FIFO
      00000088H.1 SFRSYM    DATA     BIT       IE0
      000000B0H   SFRSYM    DATA     BIT       BUT_SPEED
      000000D9H   SFRSYM    DATA     BYTE      USB_INT_ST
      00000088H.3 SFRSYM    DATA     BIT       IE1
      000000A9H   SFRSYM    DATA     BYTE      WAKE_CTRL
      000000C5H   SFRSYM    DATA     BYTE      TKEY_DATH
      000000F0H   SFRSYM    DATA     BYTE      B
      0000009FH   SFRSYM    DATA     BYTE      ADC_DATA
      000000C8H   SFRSYM    DATA     BIT       CP_RL2
      000000C4H   SFRSYM    DATA     BYTE      TKEY_DATL
      00000093H   SFRSYM    DATA     BYTE      P1_DIR_PU
      000000E0H   SFRSYM    DATA     BYTE      ACC
      00000097H   SFRSYM    DATA     BYTE      P3_DIR_PU
      000000A8H.1 SFRSYM    DATA     BIT       ET0
      00000088H.5 SFRSYM    DATA     BIT       TF0
      000000A8H.3 SFRSYM    DATA     BIT       ET1
      00000088H.7 SFRSYM    DATA     BIT       TF1
      000000A8H.5 SFRSYM    DATA     BIT       ET2
      000000D1H   SFRSYM    DATA     BYTE      UDEV_CTRL
      000000C8H.7 SFRSYM    DATA     BIT       CAP1F
      000000C8H.7 SFRSYM    DATA     BIT       TF2
      00000098H.2 SFRSYM    DATA     BIT       RB8
      0000008CH   SFRSYM    DATA     BYTE      TH0
      0000008DH   SFRSYM    DATA     BYTE      TH1
      00000088H   SFRSYM    DATA     BIT       IT0
      000000A8H   SFRSYM    DATA     BIT       EX0
      000000ECH   SFRSYM    DATA     WORD      UEP0_DMA
      000000CDH   SFRSYM    DATA     BYTE      TH2
      00000098H.3 SFRSYM    DATA     BIT       TB8
      00000088H.2 SFRSYM    DATA     BIT       IT1
      00000090H.2 SFRSYM    DATA     BIT       RXD_
      000000A8H.2 SFRSYM    DATA     BIT       EX1
      000000B0H.4 SFRSYM    DATA     BIT       BUT_MUSIC
      000000EEH   SFRSYM    DATA     WORD      UEP1_DMA
      000000D0H   SFRSYM    DATA     BIT       P
      000000E4H   SFRSYM    DATA     WORD      UEP2_DMA
      00000080H.6 SFRSYM    DATA     BIT       CMP_IF
      00000098H.7 SFRSYM    DATA     BIT       SM0
      0000008AH   SFRSYM    DATA     BYTE      TL0
      00000090H.3 SFRSYM    DATA     BIT       TXD_
      000000E6H   SFRSYM    DATA     WORD      UEP3_DMA
      00000098H.6 SFRSYM    DATA     BIT       SM1
      0000008BH   SFRSYM    DATA     BYTE      TL1
      000000CCH   SFRSYM    DATA     BYTE      TL2
      00000098H.5 SFRSYM    DATA     BIT       SM2
      000000C0H.2 SFRSYM    DATA     BIT       U1RB8
      000000B8H.1 SFRSYM    DATA     BIT       PT0
      000000C3H   SFRSYM    DATA     BYTE      TKEY_CTRL
      000000C0H.3 SFRSYM    DATA     BIT       U1TB8
      000000CFH   SFRSYM    DATA     BYTE      T2CAP1H
      000000B8H.3 SFRSYM    DATA     BIT       PT1
      000000D0H.3 SFRSYM    DATA     BIT       RS0
      00000088H.4 SFRSYM    DATA     BIT       TR0
      000000B8H.5 SFRSYM    DATA     BIT       PT2
      000000D0H.4 SFRSYM    DATA     BIT       RS1
      000000C0H.7 SFRSYM    DATA     BIT       U1SM0
LX51 LINKER/LOCATER V4.41                                                             12/15/2025  10:37:13  PAGE 60


      00000088H.6 SFRSYM    DATA     BIT       TR1
      000000C8H.2 SFRSYM    DATA     BIT       TR2
      000000B8H   SFRSYM    DATA     BIT       PX0
      000000CEH   SFRSYM    DATA     BYTE      T2CAP1L
      000000CAH   SFRSYM    DATA     WORD      RCAP2
      000000E8H.2 SFRSYM    DATA     BIT       IE_USB
      000000B8H.2 SFRSYM    DATA     BIT       PX1
      00000080H.3 SFRSYM    DATA     BIT       CMP_CHAN
      0000009EH   SFRSYM    DATA     BYTE      PWM_CK_SE
      00000083H   SFRSYM    DATA     BYTE      DPH
      000000F8H.5 SFRSYM    DATA     BIT       S0_IF_FIRST
      000000E8H.4 SFRSYM    DATA     BIT       IE_UART1
      00000080H   SFRSYM    DATA     BYTE      ADC_CTRL
      00000082H   SFRSYM    DATA     BYTE      DPL
      00000090H.7 SFRSYM    DATA     BIT       SCK
      000000A1H   SFRSYM    DATA     BYTE      SAFE_MOD
      000000C1H   SFRSYM    DATA     BYTE      SBUF1
      000000C8H.3 SFRSYM    DATA     BIT       EXEN2
      000000B1H   SFRSYM    DATA     BYTE      GLOBAL_CFG
      000000C0H   SFRSYM    DATA     BYTE      SCON1
      00000098H.4 SFRSYM    DATA     BIT       REN
      00000090H.4 SFRSYM    DATA     BIT       CAP1_
      00000090H.4 SFRSYM    DATA     BIT       T2_
      000000B0H.7 SFRSYM    DATA     BIT       UDM
      000000C9H   SFRSYM    DATA     BYTE      T2MOD
      000000C8H   SFRSYM    DATA     BYTE      T2CON
      000000B0H.6 SFRSYM    DATA     BIT       UDP
      00000090H.4 SFRSYM    DATA     BIT       SCS
      000000D8H.2 SFRSYM    DATA     BIT       UIF_SUSPEND
      0000008EH   SFRSYM    DATA     WORD      ROM_DATA
      00000084H   SFRSYM    DATA     WORD      ROM_ADDR
      00000090H.7 SFRSYM    DATA     BIT       GPIO_RED
      000000C0H.4 SFRSYM    DATA     BIT       U1REN
      000000B0H   SFRSYM    DATA     BIT       RXD
      000000D8H.4 SFRSYM    DATA     BIT       UIF_FIFO_OV
      000000B0H.1 SFRSYM    DATA     BIT       TXD
      000000EBH   SFRSYM    DATA     BYTE      UEP2_3_MOD
      000000EAH   SFRSYM    DATA     BYTE      UEP4_1_MOD
      000000B0H.2 SFRSYM    DATA     BIT       VBUS1
      00000090H.1 SFRSYM    DATA     BIT       VBUS2
      00000080H   SFRSYM    DATA     BIT       ADC_CHAN0
      00000080H.1 SFRSYM    DATA     BIT       ADC_CHAN1
      000000C6H   SFRSYM    DATA     BYTE      PIN_FUNC
      000000D0H.5 SFRSYM    DATA     BIT       F0
      000000EDH   SFRSYM    DATA     BYTE      UEP0_DMA_H
      000000D0H.1 SFRSYM    DATA     BIT       F1
      000000EFH   SFRSYM    DATA     BYTE      UEP1_DMA_H
      000000E5H   SFRSYM    DATA     BYTE      UEP2_DMA_H
      000000C4H   SFRSYM    DATA     WORD      TKEY_DAT
      000000F8H.6 SFRSYM    DATA     BIT       S0_IF_OV
      000000E7H   SFRSYM    DATA     BYTE      UEP3_DMA_H
      0000009AH   SFRSYM    DATA     BYTE      ADC_CFG
      000000ECH   SFRSYM    DATA     BYTE      UEP0_DMA_L
      000000D0H   SFRSYM    DATA     BYTE      PSW
      000000EEH   SFRSYM    DATA     BYTE      UEP1_DMA_L
      000000E4H   SFRSYM    DATA     BYTE      UEP2_DMA_L
      000000E6H   SFRSYM    DATA     BYTE      UEP3_DMA_L

      010014DAH   BLOCK     CODE     ---       LVL=0
      0200017DH   SYMBOL    XDATA    BYTE      Duty
      0200017EH   SYMBOL    XDATA    BYTE      Bright
      010014DAH   LINE      CODE     ---       #8
      010014E2H   LINE      CODE     ---       #9
      010014E2H   LINE      CODE     ---       #10
      010014F7H   LINE      CODE     ---       #11
LX51 LINKER/LOCATER V4.41                                                             12/15/2025  10:37:13  PAGE 61


      010014F7H   LINE      CODE     ---       #12
      010014FEH   LINE      CODE     ---       #13
      01001506H   LINE      CODE     ---       #14
      0100150BH   LINE      CODE     ---       #15
      0100150BH   LINE      CODE     ---       #16
      01001514H   LINE      CODE     ---       #17
      01001514H   LINE      CODE     ---       #18
      0100151EH   LINE      CODE     ---       #19
      0100151EH   LINE      CODE     ---       #20
      01001520H   LINE      CODE     ---       #21
      01001526H   LINE      CODE     ---       #22
      01001530H   LINE      CODE     ---       #23
      01001530H   LINE      CODE     ---       #24
      01001532H   LINE      CODE     ---       #25
      01001532H   LINE      CODE     ---       #26
      01001532H   LINE      CODE     ---       #27
      01001534H   LINE      CODE     ---       #29
      01001534H   LINE      CODE     ---       #30
      01001549H   LINE      CODE     ---       #31
      01001549H   LINE      CODE     ---       #32
      01001550H   LINE      CODE     ---       #33
      0100155AH   LINE      CODE     ---       #34
      0100155AH   LINE      CODE     ---       #35
      0100155CH   LINE      CODE     ---       #36
      0100155CH   LINE      CODE     ---       #37
      0100155CH   LINE      CODE     ---       #38
      01001563H   LINE      CODE     ---       #39
      01001563H   LINE      CODE     ---       #40
      0100156CH   LINE      CODE     ---       #43
      0100158BH   LINE      CODE     ---       #44
      0100158BH   LINE      CODE     ---       #45
      0100158BH   LINE      CODE     ---       #46
      0100158BH   LINE      CODE     ---       #47
      01001595H   LINE      CODE     ---       #48
      0100159CH   LINE      CODE     ---       #49
      0100159CH   LINE      CODE     ---       #50
      0100159EH   LINE      CODE     ---       #51
      0100159EH   LINE      CODE     ---       #52
      0100159EH   LINE      CODE     ---       #53
      010015A5H   LINE      CODE     ---       #54
      010015A5H   LINE      CODE     ---       #55
      010015A5H   LINE      CODE     ---       #56
      010015A7H   LINE      CODE     ---       #57
      010015A7H   LINE      CODE     ---       #58
      010015A7H   LINE      CODE     ---       #59
      010015B2H   LINE      CODE     ---       #60
      010015BAH   LINE      CODE     ---       #61
      010015BAH   LINE      CODE     ---       #62
      010015BCH   LINE      CODE     ---       #63
      010015BCH   LINE      CODE     ---       #64
      010015BCH   LINE      CODE     ---       #65
      010015C9H   LINE      CODE     ---       #66
      010015D6H   LINE      CODE     ---       #67
      010015DDH   LINE      CODE     ---       #68
      010015DFH   LINE      CODE     ---       #69
      010015DFH   LINE      CODE     ---       #70
      010015DFH   LINE      CODE     ---       #71
      010015ECH   LINE      CODE     ---       #72
      010015F8H   LINE      CODE     ---       #73
      01001600H   LINE      CODE     ---       #74
      01001602H   LINE      CODE     ---       #75
      01001602H   LINE      CODE     ---       #76
      01001602H   LINE      CODE     ---       #77
      0100160DH   LINE      CODE     ---       #78
      0100161AH   LINE      CODE     ---       #79
LX51 LINKER/LOCATER V4.41                                                             12/15/2025  10:37:13  PAGE 62


      01001622H   LINE      CODE     ---       #80
      01001624H   LINE      CODE     ---       #81
      01001624H   LINE      CODE     ---       #82
      01001624H   LINE      CODE     ---       #83
      01001631H   LINE      CODE     ---       #84
      0100163EH   LINE      CODE     ---       #85
      0100164BH   LINE      CODE     ---       #86
      0100164BH   LINE      CODE     ---       #87
      0100164BH   LINE      CODE     ---       #94
      0100164DH   LINE      CODE     ---       #95
      ---         BLOCKEND  ---      ---       LVL=0

      0100164EH   BLOCK     CODE     ---       LVL=0
      02000181H   SYMBOL    XDATA    BYTE      Duty
      00000005H   SYMBOL    DATA     BYTE      _dBand
      0100164EH   LINE      CODE     ---       #97
      01001653H   LINE      CODE     ---       #98
      01001653H   LINE      CODE     ---       #99
      01001659H   LINE      CODE     ---       #100
      0100165BH   LINE      CODE     ---       #101
      01001661H   LINE      CODE     ---       #102
      01001661H   LINE      CODE     ---       #103
      0100166AH   LINE      CODE     ---       #104
      0100166AH   LINE      CODE     ---       #106
      01001670H   LINE      CODE     ---       #107
      01001670H   LINE      CODE     ---       #108
      0100167AH   LINE      CODE     ---       #109
      0100167AH   LINE      CODE     ---       #110
      01001684H   LINE      CODE     ---       #111
      01001684H   LINE      CODE     ---       #113
      0100169DH   LINE      CODE     ---       #114
      0100169DH   LINE      CODE     ---       #115
      010016A4H   LINE      CODE     ---       #116
      010016AFH   LINE      CODE     ---       #117
      010016AFH   LINE      CODE     ---       #118
      010016B1H   LINE      CODE     ---       #119
      010016BBH   LINE      CODE     ---       #120
      010016BDH   LINE      CODE     ---       #121
      010016BDH   LINE      CODE     ---       #122
      010016BDH   LINE      CODE     ---       #123
      010016D8H   LINE      CODE     ---       #124
      010016D8H   LINE      CODE     ---       #125
      010016D8H   LINE      CODE     ---       #126
      010016D8H   LINE      CODE     ---       #127
      010016E4H   LINE      CODE     ---       #128
      010016F5H   LINE      CODE     ---       #129
      010016F9H   LINE      CODE     ---       #130
      010016FBH   LINE      CODE     ---       #131
      010016FBH   LINE      CODE     ---       #132
      010016FBH   LINE      CODE     ---       #133
      0100170CH   LINE      CODE     ---       #134
      01001715H   LINE      CODE     ---       #135
      0100171CH   LINE      CODE     ---       #136
      0100171EH   LINE      CODE     ---       #137
      0100171EH   LINE      CODE     ---       #138
      0100171EH   LINE      CODE     ---       #139
      01001726H   LINE      CODE     ---       #140
      01001732H   LINE      CODE     ---       #141
      0100173EH   LINE      CODE     ---       #142
      01001740H   LINE      CODE     ---       #143
      01001740H   LINE      CODE     ---       #144
      01001740H   LINE      CODE     ---       #145
      0100174CH   LINE      CODE     ---       #146
      0100175DH   LINE      CODE     ---       #147
      01001764H   LINE      CODE     ---       #148
LX51 LINKER/LOCATER V4.41                                                             12/15/2025  10:37:13  PAGE 63


      01001766H   LINE      CODE     ---       #149
      01001766H   LINE      CODE     ---       #150
      01001766H   LINE      CODE     ---       #151
      01001777H   LINE      CODE     ---       #152
      01001780H   LINE      CODE     ---       #153
      01001784H   LINE      CODE     ---       #154
      01001784H   LINE      CODE     ---       #155
      01001789H   LINE      CODE     ---       #160
      01001789H   LINE      CODE     ---       #161
      01001789H   LINE      CODE     ---       #162
      0100178BH   LINE      CODE     ---       #163
      ---         BLOCKEND  ---      ---       LVL=0

      ---         MODULE    ---      ---       ?C_STARTUP
      01000000H   PUBLIC    CODE     ---       ?C_STARTUP

      ---         MODULE    ---      ---       ?C?IMUL
      01001DBAH   PUBLIC    CODE     ---       ?C?IMUL

      ---         MODULE    ---      ---       ?C?UIDIV
      01001DCCH   PUBLIC    CODE     ---       ?C?UIDIV

      ---         MODULE    ---      ---       ?C?SIDIV
      01001E21H   PUBLIC    CODE     ---       ?C?SIDIV

      ---         MODULE    ---      ---       ?C?IILDX
      01001E57H   PUBLIC    CODE     ---       ?C?IILDX

      ---         MODULE    ---      ---       ?C?ILDPTR
      01001E6DH   PUBLIC    CODE     ---       ?C?ILDPTR

      ---         MODULE    ---      ---       ?C?ULDIV
      01001ED4H   PUBLIC    CODE     ---       ?C?ULDIV

      ---         MODULE    ---      ---       ?C?SLDIV
      010022D4H   PUBLIC    CODE     ---       ?C?SLDIV

      ---         MODULE    ---      ---       ?C?ULCMP
      01001F66H   PUBLIC    CODE     ---       ?C?ULCMP

      ---         MODULE    ---      ---       ?C?ULSHR
      01001F77H   PUBLIC    CODE     ---       ?C?ULSHR

      ---         MODULE    ---      ---       ?C?SLSHR
      01001F8AH   PUBLIC    CODE     ---       ?C?SLSHR

      ---         MODULE    ---      ---       ?C?LSHL
      01001F9EH   PUBLIC    CODE     ---       ?C?LSHL

      ---         MODULE    ---      ---       ?C?LLDXDATA
      01001FB1H   PUBLIC    CODE     ---       ?C?LLDXDATA

      ---         MODULE    ---      ---       ?C?LLDCODE
      01001FBDH   PUBLIC    CODE     ---       ?C?LLDCODE

      ---         MODULE    ---      ---       ?C?LLDXDATA0
      01001FCDH   PUBLIC    CODE     ---       ?C?LLDXDATA0

      ---         MODULE    ---      ---       ?C?LILDXDATA
      01001FE2H   PUBLIC    CODE     ---       ?C?LILDXDATA
      01001FD9H   PUBLIC    CODE     ---       ?C?LILDXDATA1
      01001FDBH   PUBLIC    CODE     ---       ?C?LILDXDATA8

      ---         MODULE    ---      ---       ?C?LSTXDATA
      0100200EH   PUBLIC    CODE     ---       ?C?LSTXDATA
LX51 LINKER/LOCATER V4.41                                                             12/15/2025  10:37:13  PAGE 64



      ---         MODULE    ---      ---       ?C?LSTKXDATA
      0100201AH   PUBLIC    CODE     ---       ?C?LSTKXDATA

      ---         MODULE    ---      ---       ?C?OFFXADD
      0100204BH   PUBLIC    CODE     ---       ?C?OFFXADD

      ---         MODULE    ---      ---       RAND
      02000175H   PUBLIC    XDATA    ---       ?SRAND?BYTE
      01002287H   PUBLIC    CODE     ---       RAND
      010022C5H   PUBLIC    CODE     ---       _SRAND

      ---         MODULE    ---      ---       ?C_INIT
      01002242H   PUBLIC    CODE     ---       ?C_START



*** WARNING L16: UNCALLED FUNCTION, IGNORED FOR OVERLAY PROCESS
    NAME:    MINITSTDIO/DEBUG

*** WARNING L16: UNCALLED FUNCTION, IGNORED FOR OVERLAY PROCESS
    NAME:    UART1SETUP/DEBUG

*** WARNING L16: UNCALLED FUNCTION, IGNORED FOR OVERLAY PROCESS
    NAME:    _AUDIO_CONVERT/EFFECT

*** WARNING L16: UNCALLED FUNCTION, IGNORED FOR OVERLAY PROCESS
    NAME:    _DISPLAY_LED_7/EFFECT

*** WARNING L16: UNCALLED FUNCTION, IGNORED FOR OVERLAY PROCESS
    NAME:    RGB_OFFDISPLAY/EFFECT

*** WARNING L16: UNCALLED FUNCTION, IGNORED FOR OVERLAY PROCESS
    NAME:    _CHECK_BUTTON/EFFECT

*** WARNING L16: UNCALLED FUNCTION, IGNORED FOR OVERLAY PROCESS
    NAME:    _RGB_PROCESSKEY/EFFECT

*** WARNING L16: UNCALLED FUNCTION, IGNORED FOR OVERLAY PROCESS
    NAME:    _PROGRAM_AUTOEFFECT/EFFECT

*** WARNING L16: UNCALLED FUNCTION, IGNORED FOR OVERLAY PROCESS
    NAME:    _PROGRAM_EFFECT/EFFECT

*** WARNING L16: UNCALLED FUNCTION, IGNORED FOR OVERLAY PROCESS
    NAME:    _EFFECT_MOVECOLOR/EFFECT_RGBDANCE

*** WARNING L16: UNCALLED FUNCTION, IGNORED FOR OVERLAY PROCESS
    NAME:    _EFFECT_MOVECOLOR2/EFFECT_RGBDANCE

Program Size: data=38.1 xdata=386 const=12 code=8959
LX51 RUN COMPLETE.  11 WARNING(S),  0 ERROR(S)
